
image.elf: formato do arquivo elf32-littleriscv


Desmontagem da seção .text:

40000000 <_entry>:
40000000:	00003697          	auipc	a3,0x3
40000004:	06068693          	addi	a3,a3,96 # 40003060 <lastcount.1512>
40000008:	0007e617          	auipc	a2,0x7e
4000000c:	3bc60613          	addi	a2,a2,956 # 4007e3c4 <_end>
40000010:	00004197          	auipc	gp,0x4
40000014:	84818193          	addi	gp,gp,-1976 # 40003858 <_gp>
40000018:	10000117          	auipc	sp,0x10000
4000001c:	fe410113          	addi	sp,sp,-28 # 4ffffffc <_stack>
40000020:	0007e217          	auipc	tp,0x7e
40000024:	3e320213          	addi	tp,tp,995 # 4007e403 <_end+0x3f>
40000028:	fc027213          	andi	tp,tp,-64

4000002c <BSS_CLEAR>:
4000002c:	0006a023          	sw	zero,0(a3)
40000030:	00468693          	addi	a3,a3,4
40000034:	fec6cce3          	blt	a3,a2,4000002c <BSS_CLEAR>
40000038:	00000d97          	auipc	s11,0x0
4000003c:	0c8d8d93          	addi	s11,s11,200 # 40000100 <_isr>
40000040:	f0000d37          	lui	s10,0xf0000
40000044:	01bd2023          	sw	s11,0(s10) # f0000000 <_stack+0xa0000004>
40000048:	60c010ef          	jal	ra,40001654 <main>
4000004c:	e0000d37          	lui	s10,0xe0000
40000050:	000d2023          	sw	zero,0(s10) # e0000000 <_stack+0x90000004>

40000054 <L1>:
40000054:	00000063          	beq	zero,zero,40000054 <L1>
	...

40000100 <_isr>:
40000100:	00000013          	addi	zero,zero,0
40000104:	fbc10113          	addi	sp,sp,-68
40000108:	00112023          	sw	ra,0(sp)
4000010c:	00512223          	sw	t0,4(sp)
40000110:	00612423          	sw	t1,8(sp)
40000114:	00712623          	sw	t2,12(sp)
40000118:	00a12823          	sw	a0,16(sp)
4000011c:	00b12a23          	sw	a1,20(sp)
40000120:	00c12c23          	sw	a2,24(sp)
40000124:	00d12e23          	sw	a3,28(sp)
40000128:	02e12023          	sw	a4,32(sp)
4000012c:	02f12223          	sw	a5,36(sp)
40000130:	03012423          	sw	a6,40(sp)
40000134:	03112623          	sw	a7,44(sp)
40000138:	03c12823          	sw	t3,48(sp)
4000013c:	03d12a23          	sw	t4,52(sp)
40000140:	03e12c23          	sw	t5,56(sp)
40000144:	03f12e23          	sw	t6,60(sp)
40000148:	f0000d37          	lui	s10,0xf0000
4000014c:	040d0d13          	addi	s10,s10,64 # f0000040 <_stack+0xa0000044>
40000150:	000d2d03          	lw	s10,0(s10)
40000154:	ffcd0d13          	addi	s10,s10,-4
40000158:	05a12023          	sw	s10,64(sp)
4000015c:	f00005b7          	lui	a1,0xf0000
40000160:	0105a503          	lw	a0,16(a1) # f0000010 <_stack+0xa0000014>
40000164:	0205a603          	lw	a2,32(a1)
40000168:	00c57533          	and	a0,a0,a2
4000016c:	00010593          	addi	a1,sp,0
40000170:	06050263          	beq	a0,zero,400001d4 <_exception>
40000174:	784000ef          	jal	ra,400008f8 <_irq_handler>

40000178 <_restore>:
40000178:	01012503          	lw	a0,16(sp)
4000017c:	01412583          	lw	a1,20(sp)

40000180 <_restore_exception>:
40000180:	00012083          	lw	ra,0(sp)
40000184:	00412283          	lw	t0,4(sp)
40000188:	00812303          	lw	t1,8(sp)
4000018c:	00c12383          	lw	t2,12(sp)
40000190:	01812603          	lw	a2,24(sp)
40000194:	01c12683          	lw	a3,28(sp)
40000198:	02012703          	lw	a4,32(sp)
4000019c:	02412783          	lw	a5,36(sp)
400001a0:	02812803          	lw	a6,40(sp)
400001a4:	02c12883          	lw	a7,44(sp)
400001a8:	03012e03          	lw	t3,48(sp)
400001ac:	03412e83          	lw	t4,52(sp)
400001b0:	03812f03          	lw	t5,56(sp)
400001b4:	03c12f83          	lw	t6,60(sp)
400001b8:	04410113          	addi	sp,sp,68
400001bc:	00106d93          	ori	s11,zero,1
400001c0:	f0000d37          	lui	s10,0xf0000
400001c4:	030d0d13          	addi	s10,s10,48 # f0000030 <_stack+0xa0000034>
400001c8:	01bd2023          	sw	s11,0(s10)
400001cc:	ffc12d03          	lw	s10,-4(sp)
400001d0:	000d0067          	jalr	zero,0(s10)

400001d4 <_exception>:
400001d4:	ffcd0d13          	addi	s10,s10,-4
400001d8:	000d2d83          	lw	s11,0(s10)
400001dc:	01012503          	lw	a0,16(sp)
400001e0:	01412583          	lw	a1,20(sp)
400001e4:	000d0613          	addi	a2,s10,0
400001e8:	000d8693          	addi	a3,s11,0
400001ec:	788000ef          	jal	ra,40000974 <_exception_handler>
400001f0:	f91ff06f          	jal	zero,40000180 <_restore_exception>

400001f4 <_interrupt_set>:
400001f4:	f00005b7          	lui	a1,0xf0000
400001f8:	03058593          	addi	a1,a1,48 # f0000030 <_stack+0xa0000034>
400001fc:	0005a603          	lw	a2,0(a1)
40000200:	00a5a023          	sw	a0,0(a1)
40000204:	00060513          	addi	a0,a2,0
40000208:	00008067          	jalr	zero,0(ra)

4000020c <_context_save>:
4000020c:	00852023          	sw	s0,0(a0)
40000210:	00952223          	sw	s1,4(a0)
40000214:	01252423          	sw	s2,8(a0)
40000218:	01352623          	sw	s3,12(a0)
4000021c:	01452823          	sw	s4,16(a0)
40000220:	01552a23          	sw	s5,20(a0)
40000224:	01652c23          	sw	s6,24(a0)
40000228:	01752e23          	sw	s7,28(a0)
4000022c:	03852023          	sw	s8,32(a0)
40000230:	03952223          	sw	s9,36(a0)
40000234:	02452623          	sw	tp,44(a0)
40000238:	02252823          	sw	sp,48(a0)
4000023c:	02152a23          	sw	ra,52(a0)
40000240:	00006513          	ori	a0,zero,0
40000244:	00008067          	jalr	zero,0(ra)

40000248 <_context_restore>:
40000248:	00052403          	lw	s0,0(a0)
4000024c:	00452483          	lw	s1,4(a0)
40000250:	00852903          	lw	s2,8(a0)
40000254:	00c52983          	lw	s3,12(a0)
40000258:	01052a03          	lw	s4,16(a0)
4000025c:	01452a83          	lw	s5,20(a0)
40000260:	01852b03          	lw	s6,24(a0)
40000264:	01c52b83          	lw	s7,28(a0)
40000268:	02052c03          	lw	s8,32(a0)
4000026c:	02452c83          	lw	s9,36(a0)
40000270:	02c52203          	lw	tp,44(a0)
40000274:	03052103          	lw	sp,48(a0)
40000278:	03452083          	lw	ra,52(a0)
4000027c:	00106d93          	ori	s11,zero,1
40000280:	f0000d37          	lui	s10,0xf0000
40000284:	030d0d13          	addi	s10,s10,48 # f0000030 <_stack+0xa0000034>
40000288:	0005e513          	ori	a0,a1,0
4000028c:	01bd2023          	sw	s11,0(s10)
40000290:	00008067          	jalr	zero,0(ra)

40000294 <app_main>:
40000294:	000017b7          	lui	a5,0x1
40000298:	40003737          	lui	a4,0x40003
4000029c:	40000537          	lui	a0,0x40000
400002a0:	80078793          	addi	a5,a5,-2048 # 800 <_entry-0x3ffff800>
400002a4:	92870713          	addi	a4,a4,-1752 # 40002928 <_etext+0x50>
400002a8:	00000693          	addi	a3,zero,0
400002ac:	00000613          	addi	a2,zero,0
400002b0:	00000593          	addi	a1,zero,0
400002b4:	36c50513          	addi	a0,a0,876 # 4000036c <task>
400002b8:	30c0206f          	jal	zero,400025c4 <hf_spawn>

400002bc <bubbleSort>:
400002bc:	fff58793          	addi	a5,a1,-1
400002c0:	04f05063          	bge	zero,a5,40000300 <bubbleSort+0x44>
400002c4:	00259613          	slli	a2,a1,0x2
400002c8:	00c50633          	add	a2,a0,a2
400002cc:	00078593          	addi	a1,a5,0
400002d0:	00450513          	addi	a0,a0,4
400002d4:	00050793          	addi	a5,a0,0
400002d8:	ffc7a703          	lw	a4,-4(a5)
400002dc:	0007a683          	lw	a3,0(a5)
400002e0:	00e6d663          	bge	a3,a4,400002ec <bubbleSort+0x30>
400002e4:	fed7ae23          	sw	a3,-4(a5)
400002e8:	00e7a023          	sw	a4,0(a5)
400002ec:	00478793          	addi	a5,a5,4
400002f0:	fef614e3          	bne	a2,a5,400002d8 <bubbleSort+0x1c>
400002f4:	fff58593          	addi	a1,a1,-1
400002f8:	ffc60613          	addi	a2,a2,-4
400002fc:	fc059ce3          	bne	a1,zero,400002d4 <bubbleSort+0x18>
40000300:	00008067          	jalr	zero,0(ra)

40000304 <printArray>:
40000304:	04b05e63          	bge	zero,a1,40000360 <printArray+0x5c>
40000308:	ff010113          	addi	sp,sp,-16
4000030c:	00259593          	slli	a1,a1,0x2
40000310:	00812423          	sw	s0,8(sp)
40000314:	00912223          	sw	s1,4(sp)
40000318:	01212023          	sw	s2,0(sp)
4000031c:	00112623          	sw	ra,12(sp)
40000320:	00050413          	addi	s0,a0,0
40000324:	00b504b3          	add	s1,a0,a1
40000328:	40003937          	lui	s2,0x40003
4000032c:	00042583          	lw	a1,0(s0)
40000330:	93090513          	addi	a0,s2,-1744 # 40002930 <_etext+0x58>
40000334:	00440413          	addi	s0,s0,4
40000338:	114010ef          	jal	ra,4000144c <printf>
4000033c:	fe9418e3          	bne	s0,s1,4000032c <printArray+0x28>
40000340:	00812403          	lw	s0,8(sp)
40000344:	00c12083          	lw	ra,12(sp)
40000348:	00412483          	lw	s1,4(sp)
4000034c:	00012903          	lw	s2,0(sp)
40000350:	40003537          	lui	a0,0x40003
40000354:	ca050513          	addi	a0,a0,-864 # 40002ca0 <_etext+0x3c8>
40000358:	01010113          	addi	sp,sp,16
4000035c:	0f00106f          	jal	zero,4000144c <printf>
40000360:	40003537          	lui	a0,0x40003
40000364:	ca050513          	addi	a0,a0,-864 # 40002ca0 <_etext+0x3c8>
40000368:	0e40106f          	jal	zero,4000144c <printf>

4000036c <task>:
4000036c:	400037b7          	lui	a5,0x40003
40000370:	fa010113          	addi	sp,sp,-96
40000374:	8d878793          	addi	a5,a5,-1832 # 400028d8 <_etext>
40000378:	04112e23          	sw	ra,92(sp)
4000037c:	00010713          	addi	a4,sp,0
40000380:	05078693          	addi	a3,a5,80
40000384:	0007a803          	lw	a6,0(a5)
40000388:	0047a503          	lw	a0,4(a5)
4000038c:	0087a583          	lw	a1,8(a5)
40000390:	00c7a603          	lw	a2,12(a5)
40000394:	01072023          	sw	a6,0(a4)
40000398:	00a72223          	sw	a0,4(a4)
4000039c:	00b72423          	sw	a1,8(a4)
400003a0:	00c72623          	sw	a2,12(a4)
400003a4:	01078793          	addi	a5,a5,16
400003a8:	01070713          	addi	a4,a4,16
400003ac:	fcd79ce3          	bne	a5,a3,40000384 <task+0x18>
400003b0:	40003537          	lui	a0,0x40003
400003b4:	93450513          	addi	a0,a0,-1740 # 40002934 <_etext+0x5c>
400003b8:	094010ef          	jal	ra,4000144c <printf>
400003bc:	01400593          	addi	a1,zero,20
400003c0:	00010513          	addi	a0,sp,0
400003c4:	f41ff0ef          	jal	ra,40000304 <printArray>
400003c8:	01400593          	addi	a1,zero,20
400003cc:	00010513          	addi	a0,sp,0
400003d0:	eedff0ef          	jal	ra,400002bc <bubbleSort>
400003d4:	40003537          	lui	a0,0x40003
400003d8:	94c50513          	addi	a0,a0,-1716 # 4000294c <_etext+0x74>
400003dc:	070010ef          	jal	ra,4000144c <printf>
400003e0:	01400593          	addi	a1,zero,20
400003e4:	00010513          	addi	a0,sp,0
400003e8:	f1dff0ef          	jal	ra,40000304 <printArray>
400003ec:	0000006f          	jal	zero,400003ec <task+0x80>

400003f0 <_idletask>:
400003f0:	0000006f          	jal	zero,400003f0 <_idletask>

400003f4 <putchar>:
400003f4:	e1030737          	lui	a4,0xe1030
400003f8:	40072783          	lw	a5,1024(a4) # e1030400 <_stack+0x91030404>
400003fc:	0027f793          	andi	a5,a5,2
40000400:	fe079ce3          	bne	a5,zero,400003f8 <putchar+0x4>
40000404:	e10347b7          	lui	a5,0xe1034
40000408:	00a7a023          	sw	a0,0(a5) # e1034000 <_stack+0x91034004>
4000040c:	00008067          	jalr	zero,0(ra)

40000410 <dputchar>:
40000410:	f00007b7          	lui	a5,0xf0000
40000414:	0ca7a823          	sw	a0,208(a5) # f00000d0 <_stack+0xa00000d4>
40000418:	00008067          	jalr	zero,0(ra)

4000041c <_hardware_init>:
4000041c:	e10347b7          	lui	a5,0xe1034
40000420:	1b200713          	addi	a4,zero,434
40000424:	00e7a823          	sw	a4,16(a5) # e1034010 <_stack+0x91034014>
40000428:	0007a023          	sw	zero,0(a5)
4000042c:	e1004737          	lui	a4,0xe1004
40000430:	00072783          	lw	a5,0(a4) # e1004000 <_stack+0x91004004>
40000434:	1507e793          	ori	a5,a5,336
40000438:	00f72023          	sw	a5,0(a4)
4000043c:	00008067          	jalr	zero,0(ra)

40000440 <_vm_init>:
40000440:	40003537          	lui	a0,0x40003
40000444:	ff010113          	addi	sp,sp,-16
40000448:	96050513          	addi	a0,a0,-1696 # 40002960 <_etext+0x88>
4000044c:	00112623          	sw	ra,12(sp)
40000450:	678000ef          	jal	ra,40000ac8 <kprintf>
40000454:	00c12083          	lw	ra,12(sp)
40000458:	0007a5b7          	lui	a1,0x7a
4000045c:	40004537          	lui	a0,0x40004
40000460:	12058593          	addi	a1,a1,288 # 7a120 <_entry-0x3ff85ee0>
40000464:	26450513          	addi	a0,a0,612 # 40004264 <krnl_heap>
40000468:	01010113          	addi	sp,sp,16
4000046c:	5b80106f          	jal	zero,40001a24 <heapinit>

40000470 <_sched_init>:
40000470:	40003537          	lui	a0,0x40003
40000474:	97450513          	addi	a0,a0,-1676 # 40002974 <_etext+0x9c>
40000478:	6500006f          	jal	zero,40000ac8 <kprintf>

4000047c <timer0b_handler>:
4000047c:	00000513          	addi	a0,zero,0
40000480:	4b50106f          	jal	zero,40002134 <dispatch_isr>

40000484 <timer1ctc_handler>:
40000484:	ff9ff06f          	jal	zero,4000047c <timer0b_handler>

40000488 <_timer_init>:
40000488:	40003537          	lui	a0,0x40003
4000048c:	ff010113          	addi	sp,sp,-16
40000490:	98850513          	addi	a0,a0,-1656 # 40002988 <_etext+0xb0>
40000494:	00112623          	sw	ra,12(sp)
40000498:	630000ef          	jal	ra,40000ac8 <kprintf>
4000049c:	e1021737          	lui	a4,0xe1021
400004a0:	c0072783          	lw	a5,-1024(a4) # e1020c00 <_stack+0x91020c04>
400004a4:	00c12083          	lw	ra,12(sp)
400004a8:	0027e793          	ori	a5,a5,2
400004ac:	c0f72023          	sw	a5,-1024(a4)
400004b0:	01010113          	addi	sp,sp,16
400004b4:	00008067          	jalr	zero,0(ra)

400004b8 <_irq_init>:
400004b8:	40003537          	lui	a0,0x40003
400004bc:	ff010113          	addi	sp,sp,-16
400004c0:	99c50513          	addi	a0,a0,-1636 # 4000299c <_etext+0xc4>
400004c4:	00112623          	sw	ra,12(sp)
400004c8:	600000ef          	jal	ra,40000ac8 <kprintf>
400004cc:	00c12083          	lw	ra,12(sp)
400004d0:	f00007b7          	lui	a5,0xf0000
400004d4:	00100713          	addi	a4,zero,1
400004d8:	02e7a023          	sw	a4,32(a5) # f0000020 <_stack+0xa0000024>
400004dc:	02e7a823          	sw	a4,48(a5)
400004e0:	01010113          	addi	sp,sp,16
400004e4:	00008067          	jalr	zero,0(ra)

400004e8 <_device_init>:
400004e8:	40003537          	lui	a0,0x40003
400004ec:	9b050513          	addi	a0,a0,-1616 # 400029b0 <_etext+0xd8>
400004f0:	5d80006f          	jal	zero,40000ac8 <kprintf>

400004f4 <_task_init>:
400004f4:	40003537          	lui	a0,0x40003
400004f8:	ff010113          	addi	sp,sp,-16
400004fc:	9c850513          	addi	a0,a0,-1592 # 400029c8 <_etext+0xf0>
40000500:	00112623          	sw	ra,12(sp)
40000504:	00812423          	sw	s0,8(sp)
40000508:	5c0000ef          	jal	ra,40000ac8 <kprintf>
4000050c:	40003737          	lui	a4,0x40003
40000510:	40000537          	lui	a0,0x40000
40000514:	9dc70713          	addi	a4,a4,-1572 # 400029dc <_etext+0x104>
40000518:	00000693          	addi	a3,zero,0
4000051c:	00000613          	addi	a2,zero,0
40000520:	40000793          	addi	a5,zero,1024
40000524:	00000593          	addi	a1,zero,0
40000528:	3f050513          	addi	a0,a0,1008 # 400003f0 <_idletask>
4000052c:	098020ef          	jal	ra,400025c4 <hf_spawn>
40000530:	d65ff0ef          	jal	ra,40000294 <app_main>
40000534:	4007e7b7          	lui	a5,0x4007e
40000538:	3b07a583          	lw	a1,944(a5) # 4007e3b0 <krnl_free>
4000053c:	40003537          	lui	a0,0x40003
40000540:	9e850513          	addi	a0,a0,-1560 # 400029e8 <_etext+0x110>
40000544:	584000ef          	jal	ra,40000ac8 <kprintf>
40000548:	40003537          	lui	a0,0x40003
4000054c:	a0850513          	addi	a0,a0,-1528 # 40002a08 <_etext+0x130>
40000550:	578000ef          	jal	ra,40000ac8 <kprintf>
40000554:	400037b7          	lui	a5,0x40003
40000558:	4007e437          	lui	s0,0x4007e
4000055c:	00000513          	addi	a0,zero,0
40000560:	09078793          	addi	a5,a5,144 # 40003090 <krnl_tcb>
40000564:	38f42423          	sw	a5,904(s0) # 4007e388 <krnl_task>
40000568:	6cc010ef          	jal	ra,40001c34 <hf_schedlock>
4000056c:	38842503          	lw	a0,904(s0)
40000570:	00812403          	lw	s0,8(sp)
40000574:	00c12083          	lw	ra,12(sp)
40000578:	00100593          	addi	a1,zero,1
4000057c:	03850513          	addi	a0,a0,56
40000580:	01010113          	addi	sp,sp,16
40000584:	cc5ff06f          	jal	zero,40000248 <_context_restore>

40000588 <_set_task_sp>:
40000588:	00251793          	slli	a5,a0,0x2
4000058c:	00a787b3          	add	a5,a5,a0
40000590:	00279793          	slli	a5,a5,0x2
40000594:	40a78533          	sub	a0,a5,a0
40000598:	400037b7          	lui	a5,0x40003
4000059c:	00351513          	slli	a0,a0,0x3
400005a0:	09078793          	addi	a5,a5,144 # 40003090 <krnl_tcb>
400005a4:	00a78533          	add	a0,a5,a0
400005a8:	06b52423          	sw	a1,104(a0)
400005ac:	00008067          	jalr	zero,0(ra)

400005b0 <_get_task_sp>:
400005b0:	00251793          	slli	a5,a0,0x2
400005b4:	00a787b3          	add	a5,a5,a0
400005b8:	00279793          	slli	a5,a5,0x2
400005bc:	40a78533          	sub	a0,a5,a0
400005c0:	400037b7          	lui	a5,0x40003
400005c4:	09078793          	addi	a5,a5,144 # 40003090 <krnl_tcb>
400005c8:	00351513          	slli	a0,a0,0x3
400005cc:	00a78533          	add	a0,a5,a0
400005d0:	06852503          	lw	a0,104(a0)
400005d4:	00008067          	jalr	zero,0(ra)

400005d8 <_set_task_tp>:
400005d8:	00251793          	slli	a5,a0,0x2
400005dc:	00a787b3          	add	a5,a5,a0
400005e0:	00279793          	slli	a5,a5,0x2
400005e4:	40a78533          	sub	a0,a5,a0
400005e8:	400037b7          	lui	a5,0x40003
400005ec:	00351513          	slli	a0,a0,0x3
400005f0:	09078793          	addi	a5,a5,144 # 40003090 <krnl_tcb>
400005f4:	00a78533          	add	a0,a5,a0
400005f8:	06b52623          	sw	a1,108(a0)
400005fc:	00008067          	jalr	zero,0(ra)

40000600 <_read_us>:
40000600:	400037b7          	lui	a5,0x40003
40000604:	06478793          	addi	a5,a5,100 # 40003064 <tref.1521>
40000608:	0007a683          	lw	a3,0(a5)
4000060c:	ff010113          	addi	sp,sp,-16
40000610:	40003737          	lui	a4,0x40003
40000614:	06870713          	addi	a4,a4,104 # 40003068 <tval2.1520>
40000618:	00112623          	sw	ra,12(sp)
4000061c:	00072583          	lw	a1,0(a4)
40000620:	02069c63          	bne	a3,zero,40000658 <_read_us+0x58>
40000624:	e1024737          	lui	a4,0xe1024
40000628:	00072683          	lw	a3,0(a4) # e1024000 <_stack+0x91024004>
4000062c:	00072703          	lw	a4,0(a4)
40000630:	e1024737          	lui	a4,0xe1024
40000634:	00072503          	lw	a0,0(a4) # e1024000 <_stack+0x91024004>
40000638:	01900613          	addi	a2,zero,25
4000063c:	00000693          	addi	a3,zero,0
40000640:	00a7a023          	sw	a0,0(a5)
40000644:	00072503          	lw	a0,0(a4)
40000648:	7f1000ef          	jal	ra,40001638 <__udivdi3>
4000064c:	00c12083          	lw	ra,12(sp)
40000650:	01010113          	addi	sp,sp,16
40000654:	00008067          	jalr	zero,0(ra)
40000658:	e1024637          	lui	a2,0xe1024
4000065c:	00062603          	lw	a2,0(a2) # e1024000 <_stack+0x91024004>
40000660:	fcd678e3          	bgeu	a2,a3,40000630 <_read_us+0x30>
40000664:	00158593          	addi	a1,a1,1
40000668:	00b72023          	sw	a1,0(a4)
4000066c:	fc5ff06f          	jal	zero,40000630 <_read_us+0x30>

40000670 <_timer_reset>:
40000670:	ff010113          	addi	sp,sp,-16
40000674:	00112623          	sw	ra,12(sp)
40000678:	f89ff0ef          	jal	ra,40000600 <_read_us>
4000067c:	400037b7          	lui	a5,0x40003
40000680:	06078793          	addi	a5,a5,96 # 40003060 <lastcount.1512>
40000684:	0007a703          	lw	a4,0(a5)
40000688:	00c12083          	lw	ra,12(sp)
4000068c:	4007e6b7          	lui	a3,0x4007e
40000690:	40e50733          	sub	a4,a0,a4
40000694:	3ae6a623          	sw	a4,940(a3) # 4007e3ac <krnl_pcb+0x14>
40000698:	00a7a023          	sw	a0,0(a5)
4000069c:	01010113          	addi	sp,sp,16
400006a0:	00008067          	jalr	zero,0(ra)

400006a4 <_panic>:
400006a4:	e00007b7          	lui	a5,0xe0000
400006a8:	0007a023          	sw	zero,0(a5) # e0000000 <_stack+0x90000004>
400006ac:	00008067          	jalr	zero,0(ra)

400006b0 <dummy_handler>:
400006b0:	40003537          	lui	a0,0x40003
400006b4:	a2450513          	addi	a0,a0,-1500 # 40002a24 <_etext+0x14c>
400006b8:	4100006f          	jal	zero,40000ac8 <kprintf>

400006bc <irq0_handler>:
400006bc:	e10007b7          	lui	a5,0xe1000
400006c0:	fd010113          	addi	sp,sp,-48
400006c4:	4007a783          	lw	a5,1024(a5) # e1000400 <_stack+0x91000404>
400006c8:	01412c23          	sw	s4,24(sp)
400006cc:	01512a23          	sw	s5,20(sp)
400006d0:	40003a37          	lui	s4,0x40003
400006d4:	40003ab7          	lui	s5,0x40003
400006d8:	03212023          	sw	s2,32(sp)
400006dc:	01312e23          	sw	s3,28(sp)
400006e0:	02112623          	sw	ra,44(sp)
400006e4:	02812423          	sw	s0,40(sp)
400006e8:	02912223          	sw	s1,36(sp)
400006ec:	01612823          	sw	s6,16(sp)
400006f0:	01712623          	sw	s7,12(sp)
400006f4:	01812423          	sw	s8,8(sp)
400006f8:	01912223          	sw	s9,4(sp)
400006fc:	02000993          	addi	s3,zero,32
40000700:	00100913          	addi	s2,zero,1
40000704:	018a0a13          	addi	s4,s4,24 # 40003018 <timer_vector>
40000708:	fe8a8a93          	addi	s5,s5,-24 # 40002fe8 <gpio_vector>
4000070c:	e10007b7          	lui	a5,0xe1000
40000710:	4007a703          	lw	a4,1024(a5) # e1000400 <_stack+0x91000404>
40000714:	00191913          	slli	s2,s2,0x1
40000718:	04070c63          	beq	a4,zero,40000770 <irq0_handler+0xb4>
4000071c:	fff98993          	addi	s3,s3,-1
40000720:	04098863          	beq	s3,zero,40000770 <irq0_handler+0xb4>
40000724:	4007a783          	lw	a5,1024(a5)
40000728:	02000713          	addi	a4,zero,32
4000072c:	0127f7b3          	and	a5,a5,s2
40000730:	00f76e63          	bltu	a4,a5,4000074c <irq0_handler+0x90>
40000734:	40003737          	lui	a4,0x40003
40000738:	00279793          	slli	a5,a5,0x2
4000073c:	a5470713          	addi	a4,a4,-1452 # 40002a54 <_etext+0x17c>
40000740:	00e787b3          	add	a5,a5,a4
40000744:	0007a783          	lw	a5,0(a5)
40000748:	00078067          	jalr	zero,0(a5)
4000074c:	e10007b7          	lui	a5,0xe1000
40000750:	4007a583          	lw	a1,1024(a5) # e1000400 <_stack+0x91000404>
40000754:	40003537          	lui	a0,0x40003
40000758:	a2c50513          	addi	a0,a0,-1492 # 40002a2c <_etext+0x154>
4000075c:	36c000ef          	jal	ra,40000ac8 <kprintf>
40000760:	e10007b7          	lui	a5,0xe1000
40000764:	4007a703          	lw	a4,1024(a5) # e1000400 <_stack+0x91000404>
40000768:	00191913          	slli	s2,s2,0x1
4000076c:	fa0718e3          	bne	a4,zero,4000071c <irq0_handler+0x60>
40000770:	02c12083          	lw	ra,44(sp)
40000774:	02812403          	lw	s0,40(sp)
40000778:	02412483          	lw	s1,36(sp)
4000077c:	02012903          	lw	s2,32(sp)
40000780:	01c12983          	lw	s3,28(sp)
40000784:	01812a03          	lw	s4,24(sp)
40000788:	01412a83          	lw	s5,20(sp)
4000078c:	01012b03          	lw	s6,16(sp)
40000790:	00c12b83          	lw	s7,12(sp)
40000794:	00812c03          	lw	s8,8(sp)
40000798:	00412c83          	lw	s9,4(sp)
4000079c:	03010113          	addi	sp,sp,48
400007a0:	00008067          	jalr	zero,0(ra)
400007a4:	e10217b7          	lui	a5,0xe1021
400007a8:	e1020737          	lui	a4,0xe1020
400007ac:	40072403          	lw	s0,1024(a4) # e1020400 <_stack+0x91020404>
400007b0:	8007a703          	lw	a4,-2048(a5) # e1020800 <_stack+0x91020804>
400007b4:	c007a783          	lw	a5,-1024(a5)
400007b8:	00000493          	addi	s1,zero,0
400007bc:	00e44433          	xor	s0,s0,a4
400007c0:	00f47433          	and	s0,s0,a5
400007c4:	e1021bb7          	lui	s7,0xe1021
400007c8:	00100b13          	addi	s6,zero,1
400007cc:	00147793          	andi	a5,s0,1
400007d0:	02078263          	beq	a5,zero,400007f4 <irq0_handler+0x138>
400007d4:	800ba683          	lw	a3,-2048(s7) # e1020800 <_stack+0x91020804>
400007d8:	00249713          	slli	a4,s1,0x2
400007dc:	00ea0733          	add	a4,s4,a4
400007e0:	00072703          	lw	a4,0(a4)
400007e4:	009b17b3          	sll	a5,s6,s1
400007e8:	00d7c7b3          	xor	a5,a5,a3
400007ec:	80fba023          	sw	a5,-2048(s7)
400007f0:	000700e7          	jalr	ra,0(a4)
400007f4:	00145413          	srli	s0,s0,0x1
400007f8:	00148493          	addi	s1,s1,1
400007fc:	fc0418e3          	bne	s0,zero,400007cc <irq0_handler+0x110>
40000800:	f0dff06f          	jal	zero,4000070c <irq0_handler+0x50>
40000804:	e10117b7          	lui	a5,0xe1011
40000808:	e1010737          	lui	a4,0xe1010
4000080c:	40072403          	lw	s0,1024(a4) # e1010400 <_stack+0x91010404>
40000810:	8007a703          	lw	a4,-2048(a5) # e1010800 <_stack+0x91010804>
40000814:	c007a783          	lw	a5,-1024(a5)
40000818:	00000c93          	addi	s9,zero,0
4000081c:	00e44433          	xor	s0,s0,a4
40000820:	00f47433          	and	s0,s0,a5
40000824:	00200c13          	addi	s8,zero,2
40000828:	e1015bb7          	lui	s7,0xe1015
4000082c:	00300b13          	addi	s6,zero,3
40000830:	e10144b7          	lui	s1,0xe1014
40000834:	00147793          	andi	a5,s0,1
40000838:	04078063          	beq	a5,zero,40000878 <irq0_handler+0x1bc>
4000083c:	078c8a63          	beq	s9,s8,400008b0 <irq0_handler+0x1f4>
40000840:	059c6463          	bltu	s8,s9,40000888 <irq0_handler+0x1cc>
40000844:	080c8863          	beq	s9,zero,400008d4 <irq0_handler+0x218>
40000848:	4204a783          	lw	a5,1056(s1) # e1014420 <_stack+0x91014424>
4000084c:	4304a603          	lw	a2,1072(s1)
40000850:	4404a683          	lw	a3,1088(s1)
40000854:	4304a703          	lw	a4,1072(s1)
40000858:	00c7c7b3          	xor	a5,a5,a2
4000085c:	00d7f7b3          	and	a5,a5,a3
40000860:	00e7c7b3          	xor	a5,a5,a4
40000864:	42f4a823          	sw	a5,1072(s1)
40000868:	002c9793          	slli	a5,s9,0x2
4000086c:	00fa87b3          	add	a5,s5,a5
40000870:	0007a783          	lw	a5,0(a5)
40000874:	000780e7          	jalr	ra,0(a5)
40000878:	00145413          	srli	s0,s0,0x1
4000087c:	001c8c93          	addi	s9,s9,1
40000880:	fa041ae3          	bne	s0,zero,40000834 <irq0_handler+0x178>
40000884:	e89ff06f          	jal	zero,4000070c <irq0_handler+0x50>
40000888:	ff6c90e3          	bne	s9,s6,40000868 <irq0_handler+0x1ac>
4000088c:	c20ba783          	lw	a5,-992(s7) # e1014c20 <_stack+0x91014c24>
40000890:	c30ba603          	lw	a2,-976(s7)
40000894:	c40ba683          	lw	a3,-960(s7)
40000898:	c30ba703          	lw	a4,-976(s7)
4000089c:	00c7c7b3          	xor	a5,a5,a2
400008a0:	00d7f7b3          	and	a5,a5,a3
400008a4:	00e7c7b3          	xor	a5,a5,a4
400008a8:	c2fba823          	sw	a5,-976(s7)
400008ac:	fbdff06f          	jal	zero,40000868 <irq0_handler+0x1ac>
400008b0:	820ba783          	lw	a5,-2016(s7)
400008b4:	830ba603          	lw	a2,-2000(s7)
400008b8:	840ba683          	lw	a3,-1984(s7)
400008bc:	830ba703          	lw	a4,-2000(s7)
400008c0:	00c7c7b3          	xor	a5,a5,a2
400008c4:	00d7f7b3          	and	a5,a5,a3
400008c8:	00e7c7b3          	xor	a5,a5,a4
400008cc:	82fba823          	sw	a5,-2000(s7)
400008d0:	f99ff06f          	jal	zero,40000868 <irq0_handler+0x1ac>
400008d4:	0204a783          	lw	a5,32(s1)
400008d8:	0304a603          	lw	a2,48(s1)
400008dc:	0404a683          	lw	a3,64(s1)
400008e0:	0304a703          	lw	a4,48(s1)
400008e4:	00c7c7b3          	xor	a5,a5,a2
400008e8:	00d7f7b3          	and	a5,a5,a3
400008ec:	00e7c7b3          	xor	a5,a5,a4
400008f0:	02f4a823          	sw	a5,48(s1)
400008f4:	f75ff06f          	jal	zero,40000868 <irq0_handler+0x1ac>

400008f8 <_irq_handler>:
400008f8:	ff010113          	addi	sp,sp,-16
400008fc:	00112623          	sw	ra,12(sp)
40000900:	00812423          	sw	s0,8(sp)
40000904:	00912223          	sw	s1,4(sp)
40000908:	00050413          	addi	s0,a0,0
4000090c:	cf5ff0ef          	jal	ra,40000600 <_read_us>
40000910:	00050613          	addi	a2,a0,0
40000914:	40003537          	lui	a0,0x40003
40000918:	00040593          	addi	a1,s0,0
4000091c:	ad850513          	addi	a0,a0,-1320 # 40002ad8 <_etext+0x200>
40000920:	384000ef          	jal	ra,40000ca4 <dprintf>
40000924:	4007e7b7          	lui	a5,0x4007e
40000928:	39878793          	addi	a5,a5,920 # 4007e398 <krnl_pcb>
4000092c:	0107a703          	lw	a4,16(a5)
40000930:	400034b7          	lui	s1,0x40003
40000934:	ff848493          	addi	s1,s1,-8 # 40002ff8 <irq_vector>
40000938:	00170713          	addi	a4,a4,1
4000093c:	00e7a823          	sw	a4,16(a5)
40000940:	00147793          	andi	a5,s0,1
40000944:	00145413          	srli	s0,s0,0x1
40000948:	00078863          	beq	a5,zero,40000958 <_irq_handler+0x60>
4000094c:	0004a783          	lw	a5,0(s1)
40000950:	00078463          	beq	a5,zero,40000958 <_irq_handler+0x60>
40000954:	000780e7          	jalr	ra,0(a5)
40000958:	00448493          	addi	s1,s1,4
4000095c:	fe0412e3          	bne	s0,zero,40000940 <_irq_handler+0x48>
40000960:	00c12083          	lw	ra,12(sp)
40000964:	00812403          	lw	s0,8(sp)
40000968:	00412483          	lw	s1,4(sp)
4000096c:	01010113          	addi	sp,sp,16
40000970:	00008067          	jalr	zero,0(ra)

40000974 <_exception_handler>:
40000974:	01051513          	slli	a0,a0,0x10
40000978:	00b50533          	add	a0,a0,a1
4000097c:	00008067          	jalr	zero,0(ra)

40000980 <kitoa.part.0>:
40000980:	fd010113          	addi	sp,sp,-48
40000984:	02812423          	sw	s0,40(sp)
40000988:	02112623          	sw	ra,44(sp)
4000098c:	02912223          	sw	s1,36(sp)
40000990:	03212023          	sw	s2,32(sp)
40000994:	01312e23          	sw	s3,28(sp)
40000998:	01412c23          	sw	s4,24(sp)
4000099c:	01512a23          	sw	s5,20(sp)
400009a0:	01612823          	sw	s6,16(sp)
400009a4:	01712623          	sw	s7,12(sp)
400009a8:	01000793          	addi	a5,zero,16
400009ac:	00050413          	addi	s0,a0,0
400009b0:	0af58e63          	beq	a1,a5,40000a6c <kitoa.part.0+0xec>
400009b4:	00058913          	addi	s2,a1,0
400009b8:	00000b93          	addi	s7,zero,0
400009bc:	0a054263          	blt	a0,zero,40000a60 <kitoa.part.0+0xe0>
400009c0:	400037b7          	lui	a5,0x40003
400009c4:	07078a13          	addi	s4,a5,112 # 40003070 <buf.1125>
400009c8:	400039b7          	lui	s3,0x40003
400009cc:	01ea0493          	addi	s1,s4,30
400009d0:	07078b13          	addi	s6,a5,112
400009d4:	ae498993          	addi	s3,s3,-1308 # 40002ae4 <_etext+0x20c>
400009d8:	fffa4a93          	xori	s5,s4,-1
400009dc:	0080006f          	jal	zero,400009e4 <kitoa.part.0+0x64>
400009e0:	0c9a0e63          	beq	s4,s1,40000abc <kitoa.part.0+0x13c>
400009e4:	00090593          	addi	a1,s2,0
400009e8:	00040513          	addi	a0,s0,0
400009ec:	325000ef          	jal	ra,40001510 <__modsi3>
400009f0:	00a98533          	add	a0,s3,a0
400009f4:	00054783          	lbu	a5,0(a0)
400009f8:	00090593          	addi	a1,s2,0
400009fc:	00040513          	addi	a0,s0,0
40000a00:	00f48023          	sb	a5,0(s1)
40000a04:	291000ef          	jal	ra,40001494 <__divsi3>
40000a08:	00050413          	addi	s0,a0,0
40000a0c:	009a8533          	add	a0,s5,s1
40000a10:	fff48493          	addi	s1,s1,-1
40000a14:	fc0416e3          	bne	s0,zero,400009e0 <kitoa.part.0+0x60>
40000a18:	020b9c63          	bne	s7,zero,40000a50 <kitoa.part.0+0xd0>
40000a1c:	00150513          	addi	a0,a0,1
40000a20:	02c12083          	lw	ra,44(sp)
40000a24:	02812403          	lw	s0,40(sp)
40000a28:	02412483          	lw	s1,36(sp)
40000a2c:	02012903          	lw	s2,32(sp)
40000a30:	01c12983          	lw	s3,28(sp)
40000a34:	01812a03          	lw	s4,24(sp)
40000a38:	01412a83          	lw	s5,20(sp)
40000a3c:	00c12b83          	lw	s7,12(sp)
40000a40:	00ab0533          	add	a0,s6,a0
40000a44:	01012b03          	lw	s6,16(sp)
40000a48:	03010113          	addi	sp,sp,48
40000a4c:	00008067          	jalr	zero,0(ra)
40000a50:	00ab07b3          	add	a5,s6,a0
40000a54:	02d00713          	addi	a4,zero,45
40000a58:	00e78023          	sb	a4,0(a5)
40000a5c:	fc5ff06f          	jal	zero,40000a20 <kitoa.part.0+0xa0>
40000a60:	40a00433          	sub	s0,zero,a0
40000a64:	00100b93          	addi	s7,zero,1
40000a68:	f59ff06f          	jal	zero,400009c0 <kitoa.part.0+0x40>
40000a6c:	400037b7          	lui	a5,0x40003
40000a70:	07078613          	addi	a2,a5,112 # 40003070 <buf.1125>
40000a74:	07078b13          	addi	s6,a5,112
40000a78:	400039b7          	lui	s3,0x40003
40000a7c:	01e00693          	addi	a3,zero,30
40000a80:	fe260613          	addi	a2,a2,-30
40000a84:	07078793          	addi	a5,a5,112
40000a88:	ae498993          	addi	s3,s3,-1308 # 40002ae4 <_etext+0x20c>
40000a8c:	416686b3          	sub	a3,a3,s6
40000a90:	00f47713          	andi	a4,s0,15
40000a94:	00e98733          	add	a4,s3,a4
40000a98:	00074703          	lbu	a4,0(a4)
40000a9c:	00445413          	srli	s0,s0,0x4
40000aa0:	00f68533          	add	a0,a3,a5
40000aa4:	00e78f23          	sb	a4,30(a5)
40000aa8:	fff78793          	addi	a5,a5,-1
40000aac:	f6040ae3          	beq	s0,zero,40000a20 <kitoa.part.0+0xa0>
40000ab0:	fef610e3          	bne	a2,a5,40000a90 <kitoa.part.0+0x110>
40000ab4:	00100513          	addi	a0,zero,1
40000ab8:	f69ff06f          	jal	zero,40000a20 <kitoa.part.0+0xa0>
40000abc:	00000513          	addi	a0,zero,0
40000ac0:	f80b98e3          	bne	s7,zero,40000a50 <kitoa.part.0+0xd0>
40000ac4:	f59ff06f          	jal	zero,40000a1c <kitoa.part.0+0x9c>

40000ac8 <kprintf>:
40000ac8:	fa010113          	addi	sp,sp,-96
40000acc:	02812c23          	sw	s0,56(sp)
40000ad0:	02912a23          	sw	s1,52(sp)
40000ad4:	02112e23          	sw	ra,60(sp)
40000ad8:	03212823          	sw	s2,48(sp)
40000adc:	03312623          	sw	s3,44(sp)
40000ae0:	03412423          	sw	s4,40(sp)
40000ae4:	03512223          	sw	s5,36(sp)
40000ae8:	03612023          	sw	s6,32(sp)
40000aec:	01712e23          	sw	s7,28(sp)
40000af0:	00050493          	addi	s1,a0,0
40000af4:	00054503          	lbu	a0,0(a0)
40000af8:	04410413          	addi	s0,sp,68
40000afc:	04b12223          	sw	a1,68(sp)
40000b00:	04c12423          	sw	a2,72(sp)
40000b04:	04d12623          	sw	a3,76(sp)
40000b08:	04e12823          	sw	a4,80(sp)
40000b0c:	04f12a23          	sw	a5,84(sp)
40000b10:	05012c23          	sw	a6,88(sp)
40000b14:	05112e23          	sw	a7,92(sp)
40000b18:	00812623          	sw	s0,12(sp)
40000b1c:	02050663          	beq	a0,zero,40000b48 <kprintf+0x80>
40000b20:	40003937          	lui	s2,0x40003
40000b24:	02500a13          	addi	s4,zero,37
40000b28:	06400993          	addi	s3,zero,100
40000b2c:	bfc90913          	addi	s2,s2,-1028 # 40002bfc <_etext+0x324>
40000b30:	40003ab7          	lui	s5,0x40003
40000b34:	05450263          	beq	a0,s4,40000b78 <kprintf+0xb0>
40000b38:	00148493          	addi	s1,s1,1
40000b3c:	8b9ff0ef          	jal	ra,400003f4 <putchar>
40000b40:	0004c503          	lbu	a0,0(s1)
40000b44:	fe0518e3          	bne	a0,zero,40000b34 <kprintf+0x6c>
40000b48:	03c12083          	lw	ra,60(sp)
40000b4c:	03812403          	lw	s0,56(sp)
40000b50:	03412483          	lw	s1,52(sp)
40000b54:	03012903          	lw	s2,48(sp)
40000b58:	02c12983          	lw	s3,44(sp)
40000b5c:	02812a03          	lw	s4,40(sp)
40000b60:	02412a83          	lw	s5,36(sp)
40000b64:	02012b03          	lw	s6,32(sp)
40000b68:	01c12b83          	lw	s7,28(sp)
40000b6c:	00000513          	addi	a0,zero,0
40000b70:	06010113          	addi	sp,sp,96
40000b74:	00008067          	jalr	zero,0(ra)
40000b78:	0014c783          	lbu	a5,1(s1)
40000b7c:	07378a63          	beq	a5,s3,40000bf0 <kprintf+0x128>
40000b80:	02f9e263          	bltu	s3,a5,40000ba4 <kprintf+0xdc>
40000b84:	0f478663          	beq	a5,s4,40000c70 <kprintf+0x1a8>
40000b88:	06300713          	addi	a4,zero,99
40000b8c:	0ce79a63          	bne	a5,a4,40000c60 <kprintf+0x198>
40000b90:	00044503          	lbu	a0,0(s0)
40000b94:	00440413          	addi	s0,s0,4
40000b98:	85dff0ef          	jal	ra,400003f4 <putchar>
40000b9c:	00248493          	addi	s1,s1,2
40000ba0:	fa1ff06f          	jal	zero,40000b40 <kprintf+0x78>
40000ba4:	07300713          	addi	a4,zero,115
40000ba8:	08e78263          	beq	a5,a4,40000c2c <kprintf+0x164>
40000bac:	07800713          	addi	a4,zero,120
40000bb0:	0ae79863          	bne	a5,a4,40000c60 <kprintf+0x198>
40000bb4:	00042503          	lw	a0,0(s0)
40000bb8:	00440413          	addi	s0,s0,4
40000bbc:	0c050e63          	beq	a0,zero,40000c98 <kprintf+0x1d0>
40000bc0:	01000593          	addi	a1,zero,16
40000bc4:	dbdff0ef          	jal	ra,40000980 <kitoa.part.0>
40000bc8:	00050b13          	addi	s6,a0,0
40000bcc:	00054503          	lbu	a0,0(a0)
40000bd0:	fc0506e3          	beq	a0,zero,40000b9c <kprintf+0xd4>
40000bd4:	001b0b13          	addi	s6,s6,1
40000bd8:	001b0b13          	addi	s6,s6,1
40000bdc:	819ff0ef          	jal	ra,400003f4 <putchar>
40000be0:	fffb4503          	lbu	a0,-1(s6)
40000be4:	fe051ae3          	bne	a0,zero,40000bd8 <kprintf+0x110>
40000be8:	00248493          	addi	s1,s1,2
40000bec:	f55ff06f          	jal	zero,40000b40 <kprintf+0x78>
40000bf0:	00042503          	lw	a0,0(s0)
40000bf4:	00440413          	addi	s0,s0,4
40000bf8:	08050a63          	beq	a0,zero,40000c8c <kprintf+0x1c4>
40000bfc:	00a00593          	addi	a1,zero,10
40000c00:	d81ff0ef          	jal	ra,40000980 <kitoa.part.0>
40000c04:	00050b13          	addi	s6,a0,0
40000c08:	00054503          	lbu	a0,0(a0)
40000c0c:	f80508e3          	beq	a0,zero,40000b9c <kprintf+0xd4>
40000c10:	001b0b13          	addi	s6,s6,1
40000c14:	001b0b13          	addi	s6,s6,1
40000c18:	fdcff0ef          	jal	ra,400003f4 <putchar>
40000c1c:	fffb4503          	lbu	a0,-1(s6)
40000c20:	fe051ae3          	bne	a0,zero,40000c14 <kprintf+0x14c>
40000c24:	00248493          	addi	s1,s1,2
40000c28:	f19ff06f          	jal	zero,40000b40 <kprintf+0x78>
40000c2c:	00042b03          	lw	s6,0(s0)
40000c30:	00440b93          	addi	s7,s0,4
40000c34:	040b0663          	beq	s6,zero,40000c80 <kprintf+0x1b8>
40000c38:	000b4503          	lbu	a0,0(s6)
40000c3c:	000b8413          	addi	s0,s7,0
40000c40:	f4050ee3          	beq	a0,zero,40000b9c <kprintf+0xd4>
40000c44:	001b0b13          	addi	s6,s6,1
40000c48:	facff0ef          	jal	ra,400003f4 <putchar>
40000c4c:	000b4503          	lbu	a0,0(s6)
40000c50:	fe051ae3          	bne	a0,zero,40000c44 <kprintf+0x17c>
40000c54:	000b8413          	addi	s0,s7,0
40000c58:	00248493          	addi	s1,s1,2
40000c5c:	ee5ff06f          	jal	zero,40000b40 <kprintf+0x78>
40000c60:	03f00513          	addi	a0,zero,63
40000c64:	f90ff0ef          	jal	ra,400003f4 <putchar>
40000c68:	00248493          	addi	s1,s1,2
40000c6c:	ed5ff06f          	jal	zero,40000b40 <kprintf+0x78>
40000c70:	02500513          	addi	a0,zero,37
40000c74:	f80ff0ef          	jal	ra,400003f4 <putchar>
40000c78:	00248493          	addi	s1,s1,2
40000c7c:	ec5ff06f          	jal	zero,40000b40 <kprintf+0x78>
40000c80:	02800513          	addi	a0,zero,40
40000c84:	af8a8b13          	addi	s6,s5,-1288 # 40002af8 <_etext+0x220>
40000c88:	fbdff06f          	jal	zero,40000c44 <kprintf+0x17c>
40000c8c:	00090b13          	addi	s6,s2,0
40000c90:	03000513          	addi	a0,zero,48
40000c94:	f7dff06f          	jal	zero,40000c10 <kprintf+0x148>
40000c98:	00090b13          	addi	s6,s2,0
40000c9c:	03000513          	addi	a0,zero,48
40000ca0:	f35ff06f          	jal	zero,40000bd4 <kprintf+0x10c>

40000ca4 <dprintf>:
40000ca4:	fa010113          	addi	sp,sp,-96
40000ca8:	02912a23          	sw	s1,52(sp)
40000cac:	00050493          	addi	s1,a0,0
40000cb0:	00000513          	addi	a0,zero,0
40000cb4:	02812c23          	sw	s0,56(sp)
40000cb8:	04f12a23          	sw	a5,84(sp)
40000cbc:	02112e23          	sw	ra,60(sp)
40000cc0:	03212823          	sw	s2,48(sp)
40000cc4:	03312623          	sw	s3,44(sp)
40000cc8:	03412423          	sw	s4,40(sp)
40000ccc:	03512223          	sw	s5,36(sp)
40000cd0:	03612023          	sw	s6,32(sp)
40000cd4:	01712e23          	sw	s7,28(sp)
40000cd8:	04b12223          	sw	a1,68(sp)
40000cdc:	04c12423          	sw	a2,72(sp)
40000ce0:	04d12623          	sw	a3,76(sp)
40000ce4:	04e12823          	sw	a4,80(sp)
40000ce8:	05012c23          	sw	a6,88(sp)
40000cec:	05112e23          	sw	a7,92(sp)
40000cf0:	d04ff0ef          	jal	ra,400001f4 <_interrupt_set>
40000cf4:	0004c783          	lbu	a5,0(s1)
40000cf8:	04410413          	addi	s0,sp,68
40000cfc:	00a12623          	sw	a0,12(sp)
40000d00:	00812423          	sw	s0,8(sp)
40000d04:	02078863          	beq	a5,zero,40000d34 <dprintf+0x90>
40000d08:	40003937          	lui	s2,0x40003
40000d0c:	02500a13          	addi	s4,zero,37
40000d10:	06400993          	addi	s3,zero,100
40000d14:	bfc90913          	addi	s2,s2,-1028 # 40002bfc <_etext+0x324>
40000d18:	40003ab7          	lui	s5,0x40003
40000d1c:	05478863          	beq	a5,s4,40000d6c <dprintf+0xc8>
40000d20:	00078513          	addi	a0,a5,0
40000d24:	00148493          	addi	s1,s1,1
40000d28:	ee8ff0ef          	jal	ra,40000410 <dputchar>
40000d2c:	0004c783          	lbu	a5,0(s1)
40000d30:	fe0796e3          	bne	a5,zero,40000d1c <dprintf+0x78>
40000d34:	00c12503          	lw	a0,12(sp)
40000d38:	cbcff0ef          	jal	ra,400001f4 <_interrupt_set>
40000d3c:	03c12083          	lw	ra,60(sp)
40000d40:	03812403          	lw	s0,56(sp)
40000d44:	03412483          	lw	s1,52(sp)
40000d48:	03012903          	lw	s2,48(sp)
40000d4c:	02c12983          	lw	s3,44(sp)
40000d50:	02812a03          	lw	s4,40(sp)
40000d54:	02412a83          	lw	s5,36(sp)
40000d58:	02012b03          	lw	s6,32(sp)
40000d5c:	01c12b83          	lw	s7,28(sp)
40000d60:	00000513          	addi	a0,zero,0
40000d64:	06010113          	addi	sp,sp,96
40000d68:	00008067          	jalr	zero,0(ra)
40000d6c:	0014c783          	lbu	a5,1(s1)
40000d70:	07378a63          	beq	a5,s3,40000de4 <dprintf+0x140>
40000d74:	02f9e263          	bltu	s3,a5,40000d98 <dprintf+0xf4>
40000d78:	0f478663          	beq	a5,s4,40000e64 <dprintf+0x1c0>
40000d7c:	06300713          	addi	a4,zero,99
40000d80:	0ce79a63          	bne	a5,a4,40000e54 <dprintf+0x1b0>
40000d84:	00044503          	lbu	a0,0(s0)
40000d88:	00440413          	addi	s0,s0,4
40000d8c:	e68ff0ef          	jal	ra,400003f4 <putchar>
40000d90:	00248493          	addi	s1,s1,2
40000d94:	f99ff06f          	jal	zero,40000d2c <dprintf+0x88>
40000d98:	07300713          	addi	a4,zero,115
40000d9c:	08e78263          	beq	a5,a4,40000e20 <dprintf+0x17c>
40000da0:	07800713          	addi	a4,zero,120
40000da4:	0ae79863          	bne	a5,a4,40000e54 <dprintf+0x1b0>
40000da8:	00042503          	lw	a0,0(s0)
40000dac:	00440413          	addi	s0,s0,4
40000db0:	0c050e63          	beq	a0,zero,40000e8c <dprintf+0x1e8>
40000db4:	01000593          	addi	a1,zero,16
40000db8:	bc9ff0ef          	jal	ra,40000980 <kitoa.part.0>
40000dbc:	00050b13          	addi	s6,a0,0
40000dc0:	00054503          	lbu	a0,0(a0)
40000dc4:	fc0506e3          	beq	a0,zero,40000d90 <dprintf+0xec>
40000dc8:	001b0b13          	addi	s6,s6,1
40000dcc:	001b0b13          	addi	s6,s6,1
40000dd0:	e40ff0ef          	jal	ra,40000410 <dputchar>
40000dd4:	fffb4503          	lbu	a0,-1(s6)
40000dd8:	fe051ae3          	bne	a0,zero,40000dcc <dprintf+0x128>
40000ddc:	00248493          	addi	s1,s1,2
40000de0:	f4dff06f          	jal	zero,40000d2c <dprintf+0x88>
40000de4:	00042503          	lw	a0,0(s0)
40000de8:	00440413          	addi	s0,s0,4
40000dec:	08050a63          	beq	a0,zero,40000e80 <dprintf+0x1dc>
40000df0:	00a00593          	addi	a1,zero,10
40000df4:	b8dff0ef          	jal	ra,40000980 <kitoa.part.0>
40000df8:	00050b13          	addi	s6,a0,0
40000dfc:	00054503          	lbu	a0,0(a0)
40000e00:	f80508e3          	beq	a0,zero,40000d90 <dprintf+0xec>
40000e04:	001b0b13          	addi	s6,s6,1
40000e08:	001b0b13          	addi	s6,s6,1
40000e0c:	e04ff0ef          	jal	ra,40000410 <dputchar>
40000e10:	fffb4503          	lbu	a0,-1(s6)
40000e14:	fe051ae3          	bne	a0,zero,40000e08 <dprintf+0x164>
40000e18:	00248493          	addi	s1,s1,2
40000e1c:	f11ff06f          	jal	zero,40000d2c <dprintf+0x88>
40000e20:	00042b03          	lw	s6,0(s0)
40000e24:	00440b93          	addi	s7,s0,4
40000e28:	040b0663          	beq	s6,zero,40000e74 <dprintf+0x1d0>
40000e2c:	000b4503          	lbu	a0,0(s6)
40000e30:	000b8413          	addi	s0,s7,0
40000e34:	f4050ee3          	beq	a0,zero,40000d90 <dprintf+0xec>
40000e38:	001b0b13          	addi	s6,s6,1
40000e3c:	dd4ff0ef          	jal	ra,40000410 <dputchar>
40000e40:	000b4503          	lbu	a0,0(s6)
40000e44:	fe051ae3          	bne	a0,zero,40000e38 <dprintf+0x194>
40000e48:	000b8413          	addi	s0,s7,0
40000e4c:	00248493          	addi	s1,s1,2
40000e50:	eddff06f          	jal	zero,40000d2c <dprintf+0x88>
40000e54:	03f00513          	addi	a0,zero,63
40000e58:	db8ff0ef          	jal	ra,40000410 <dputchar>
40000e5c:	00248493          	addi	s1,s1,2
40000e60:	ecdff06f          	jal	zero,40000d2c <dprintf+0x88>
40000e64:	02500513          	addi	a0,zero,37
40000e68:	da8ff0ef          	jal	ra,40000410 <dputchar>
40000e6c:	00248493          	addi	s1,s1,2
40000e70:	ebdff06f          	jal	zero,40000d2c <dprintf+0x88>
40000e74:	02800513          	addi	a0,zero,40
40000e78:	af8a8b13          	addi	s6,s5,-1288 # 40002af8 <_etext+0x220>
40000e7c:	fbdff06f          	jal	zero,40000e38 <dprintf+0x194>
40000e80:	00090b13          	addi	s6,s2,0
40000e84:	03000513          	addi	a0,zero,48
40000e88:	f7dff06f          	jal	zero,40000e04 <dprintf+0x160>
40000e8c:	00090b13          	addi	s6,s2,0
40000e90:	03000513          	addi	a0,zero,48
40000e94:	f35ff06f          	jal	zero,40000dc8 <dprintf+0x124>

40000e98 <printchar.part.0>:
40000e98:	00051463          	bne	a0,zero,40000ea0 <printchar.part.0+0x8>
40000e9c:	00008067          	jalr	zero,0(ra)
40000ea0:	d54ff06f          	jal	zero,400003f4 <putchar>

40000ea4 <__udivmoddi4.part.0>:
40000ea4:	00050f93          	addi	t6,a0,0
40000ea8:	00058f13          	addi	t5,a1,0
40000eac:	00100893          	addi	a7,zero,1
40000eb0:	00000793          	addi	a5,zero,0
40000eb4:	0206c863          	blt	a3,zero,40000ee4 <__udivmoddi4.part.0+0x40>
40000eb8:	01f65e13          	srli	t3,a2,0x1f
40000ebc:	01f8d313          	srli	t1,a7,0x1f
40000ec0:	00169e93          	slli	t4,a3,0x1
40000ec4:	00179813          	slli	a6,a5,0x1
40000ec8:	01de66b3          	or	a3,t3,t4
40000ecc:	00161613          	slli	a2,a2,0x1
40000ed0:	010367b3          	or	a5,t1,a6
40000ed4:	00189893          	slli	a7,a7,0x1
40000ed8:	fe0ed0e3          	bge	t4,zero,40000eb8 <__udivmoddi4.part.0+0x14>
40000edc:	00f8e5b3          	or	a1,a7,a5
40000ee0:	0e058863          	beq	a1,zero,40000fd0 <__udivmoddi4.part.0+0x12c>
40000ee4:	00000513          	addi	a0,zero,0
40000ee8:	00000593          	addi	a1,zero,0
40000eec:	01f79e93          	slli	t4,a5,0x1f
40000ef0:	0018d813          	srli	a6,a7,0x1
40000ef4:	01f69e13          	slli	t3,a3,0x1f
40000ef8:	00165313          	srli	t1,a2,0x1
40000efc:	0adf6463          	bltu	t5,a3,40000fa4 <__udivmoddi4.part.0+0x100>
40000f00:	ff010113          	addi	sp,sp,-16
40000f04:	00812623          	sw	s0,12(sp)
40000f08:	00912423          	sw	s1,8(sp)
40000f0c:	01212223          	sw	s2,4(sp)
40000f10:	40cf82b3          	sub	t0,t6,a2
40000f14:	011508b3          	add	a7,a0,a7
40000f18:	005fb4b3          	sltu	s1,t6,t0
40000f1c:	40df0933          	sub	s2,t5,a3
40000f20:	00a8b433          	sltu	s0,a7,a0
40000f24:	00f583b3          	add	t2,a1,a5
40000f28:	01e69463          	bne	a3,t5,40000f30 <__udivmoddi4.part.0+0x8c>
40000f2c:	00cfea63          	bltu	t6,a2,40000f40 <__udivmoddi4.part.0+0x9c>
40000f30:	00028f93          	addi	t6,t0,0
40000f34:	40990f33          	sub	t5,s2,s1
40000f38:	00088513          	addi	a0,a7,0
40000f3c:	007405b3          	add	a1,s0,t2
40000f40:	010ee8b3          	or	a7,t4,a6
40000f44:	0017d793          	srli	a5,a5,0x1
40000f48:	00f8e833          	or	a6,a7,a5
40000f4c:	006e6633          	or	a2,t3,t1
40000f50:	0016d693          	srli	a3,a3,0x1
40000f54:	02080863          	beq	a6,zero,40000f84 <__udivmoddi4.part.0+0xe0>
40000f58:	01f79e93          	slli	t4,a5,0x1f
40000f5c:	0018d813          	srli	a6,a7,0x1
40000f60:	01f69e13          	slli	t3,a3,0x1f
40000f64:	00165313          	srli	t1,a2,0x1
40000f68:	fadf74e3          	bgeu	t5,a3,40000f10 <__udivmoddi4.part.0+0x6c>
40000f6c:	010ee8b3          	or	a7,t4,a6
40000f70:	0017d793          	srli	a5,a5,0x1
40000f74:	00f8e833          	or	a6,a7,a5
40000f78:	006e6633          	or	a2,t3,t1
40000f7c:	0016d693          	srli	a3,a3,0x1
40000f80:	fc081ce3          	bne	a6,zero,40000f58 <__udivmoddi4.part.0+0xb4>
40000f84:	00070663          	beq	a4,zero,40000f90 <__udivmoddi4.part.0+0xec>
40000f88:	01f72023          	sw	t6,0(a4)
40000f8c:	01e72223          	sw	t5,4(a4)
40000f90:	00c12403          	lw	s0,12(sp)
40000f94:	00812483          	lw	s1,8(sp)
40000f98:	00412903          	lw	s2,4(sp)
40000f9c:	01010113          	addi	sp,sp,16
40000fa0:	00008067          	jalr	zero,0(ra)
40000fa4:	010ee8b3          	or	a7,t4,a6
40000fa8:	0017d793          	srli	a5,a5,0x1
40000fac:	00f8e833          	or	a6,a7,a5
40000fb0:	006e6633          	or	a2,t3,t1
40000fb4:	0016d693          	srli	a3,a3,0x1
40000fb8:	f2081ae3          	bne	a6,zero,40000eec <__udivmoddi4.part.0+0x48>
40000fbc:	00070863          	beq	a4,zero,40000fcc <__udivmoddi4.part.0+0x128>
40000fc0:	01f72023          	sw	t6,0(a4)
40000fc4:	01e72223          	sw	t5,4(a4)
40000fc8:	00008067          	jalr	zero,0(ra)
40000fcc:	00008067          	jalr	zero,0(ra)
40000fd0:	00088513          	addi	a0,a7,0
40000fd4:	00078593          	addi	a1,a5,0
40000fd8:	fe0714e3          	bne	a4,zero,40000fc0 <__udivmoddi4.part.0+0x11c>
40000fdc:	ff1ff06f          	jal	zero,40000fcc <__udivmoddi4.part.0+0x128>

40000fe0 <vsprintf>:
40000fe0:	fb010113          	addi	sp,sp,-80
40000fe4:	04812423          	sw	s0,72(sp)
40000fe8:	04112623          	sw	ra,76(sp)
40000fec:	04912223          	sw	s1,68(sp)
40000ff0:	05212023          	sw	s2,64(sp)
40000ff4:	03312e23          	sw	s3,60(sp)
40000ff8:	03412c23          	sw	s4,56(sp)
40000ffc:	03512a23          	sw	s5,52(sp)
40001000:	03612823          	sw	s6,48(sp)
40001004:	03712623          	sw	s7,44(sp)
40001008:	03812423          	sw	s8,40(sp)
4000100c:	03912223          	sw	s9,36(sp)
40001010:	0005c783          	lbu	a5,0(a1)
40001014:	00c12223          	sw	a2,4(sp)
40001018:	00050413          	addi	s0,a0,0
4000101c:	26078a63          	beq	a5,zero,40001290 <vsprintf+0x2b0>
40001020:	40003b37          	lui	s6,0x40003
40001024:	b08b0713          	addi	a4,s6,-1272 # 40002b08 <_etext+0x230>
40001028:	40003ab7          	lui	s5,0x40003
4000102c:	00e12623          	sw	a4,12(sp)
40001030:	ae4a8713          	addi	a4,s5,-1308 # 40002ae4 <_etext+0x20c>
40001034:	00058913          	addi	s2,a1,0
40001038:	00e12423          	sw	a4,8(sp)
4000103c:	01010993          	addi	s3,sp,16
40001040:	0300006f          	jal	zero,40001070 <vsprintf+0x90>
40001044:	30040a63          	beq	s0,zero,40001358 <vsprintf+0x378>
40001048:	00042683          	lw	a3,0(s0)
4000104c:	000c0713          	addi	a4,s8,0
40001050:	00090c13          	addi	s8,s2,0
40001054:	00f68023          	sb	a5,0(a3)
40001058:	00042783          	lw	a5,0(s0)
4000105c:	00070913          	addi	s2,a4,0
40001060:	00178793          	addi	a5,a5,1
40001064:	00f42023          	sw	a5,0(s0)
40001068:	001c4783          	lbu	a5,1(s8)
4000106c:	22078263          	beq	a5,zero,40001290 <vsprintf+0x2b0>
40001070:	02500713          	addi	a4,zero,37
40001074:	00190c13          	addi	s8,s2,1
40001078:	fce796e3          	bne	a5,a4,40001044 <vsprintf+0x64>
4000107c:	00194783          	lbu	a5,1(s2)
40001080:	03000713          	addi	a4,zero,48
40001084:	02000a93          	addi	s5,zero,32
40001088:	00e79863          	bne	a5,a4,40001098 <vsprintf+0xb8>
4000108c:	00294783          	lbu	a5,2(s2)
40001090:	00290c13          	addi	s8,s2,2
40001094:	03000a93          	addi	s5,zero,48
40001098:	fd078713          	addi	a4,a5,-48
4000109c:	0ff77713          	andi	a4,a4,255
400010a0:	00900593          	addi	a1,zero,9
400010a4:	fff00b13          	addi	s6,zero,-1
400010a8:	2ce5f463          	bgeu	a1,a4,40001370 <vsprintf+0x390>
400010ac:	06c00713          	addi	a4,zero,108
400010b0:	001c0913          	addi	s2,s8,1
400010b4:	00e79a63          	bne	a5,a4,400010c8 <vsprintf+0xe8>
400010b8:	002c0713          	addi	a4,s8,2
400010bc:	001c4783          	lbu	a5,1(s8)
400010c0:	00090c13          	addi	s8,s2,0
400010c4:	00070913          	addi	s2,a4,0
400010c8:	fa878793          	addi	a5,a5,-88
400010cc:	0ff7f793          	andi	a5,a5,255
400010d0:	02000713          	addi	a4,zero,32
400010d4:	f8f76ae3          	bltu	a4,a5,40001068 <vsprintf+0x88>
400010d8:	00c12703          	lw	a4,12(sp)
400010dc:	00279793          	slli	a5,a5,0x2
400010e0:	00e787b3          	add	a5,a5,a4
400010e4:	0007a783          	lw	a5,0(a5)
400010e8:	00078067          	jalr	zero,0(a5)
400010ec:	00412783          	lw	a5,4(sp)
400010f0:	01000593          	addi	a1,zero,16
400010f4:	0007a483          	lw	s1,0(a5)
400010f8:	00478793          	addi	a5,a5,4
400010fc:	00f12223          	sw	a5,4(sp)
40001100:	0a049863          	bne	s1,zero,400011b0 <vsprintf+0x1d0>
40001104:	03000793          	addi	a5,zero,48
40001108:	00f10823          	sb	a5,16(sp)
4000110c:	00100793          	addi	a5,zero,1
40001110:	ffeb0c93          	addi	s9,s6,-2
40001114:	03000513          	addi	a0,zero,48
40001118:	0567d463          	bge	a5,s6,40001160 <vsprintf+0x180>
4000111c:	02040463          	beq	s0,zero,40001144 <vsprintf+0x164>
40001120:	00042783          	lw	a5,0(s0)
40001124:	01578023          	sb	s5,0(a5)
40001128:	00042783          	lw	a5,0(s0)
4000112c:	00178793          	addi	a5,a5,1
40001130:	00f42023          	sw	a5,0(s0)
40001134:	fffc8793          	addi	a5,s9,-1
40001138:	01905e63          	bge	zero,s9,40001154 <vsprintf+0x174>
4000113c:	00078c93          	addi	s9,a5,0
40001140:	fe0410e3          	bne	s0,zero,40001120 <vsprintf+0x140>
40001144:	000a8513          	addi	a0,s5,0
40001148:	d51ff0ef          	jal	ra,40000e98 <printchar.part.0>
4000114c:	fffc8793          	addi	a5,s9,-1
40001150:	ff9046e3          	blt	zero,s9,4000113c <vsprintf+0x15c>
40001154:	02010793          	addi	a5,sp,32
40001158:	009787b3          	add	a5,a5,s1
4000115c:	ff07c503          	lbu	a0,-16(a5)
40001160:	009984b3          	add	s1,s3,s1
40001164:	02040663          	beq	s0,zero,40001190 <vsprintf+0x1b0>
40001168:	00042783          	lw	a5,0(s0)
4000116c:	00a78023          	sb	a0,0(a5)
40001170:	00042783          	lw	a5,0(s0)
40001174:	00178793          	addi	a5,a5,1
40001178:	00f42023          	sw	a5,0(s0)
4000117c:	fff48793          	addi	a5,s1,-1
40001180:	ee9984e3          	beq	s3,s1,40001068 <vsprintf+0x88>
40001184:	fff4c503          	lbu	a0,-1(s1)
40001188:	00078493          	addi	s1,a5,0
4000118c:	fc041ee3          	bne	s0,zero,40001168 <vsprintf+0x188>
40001190:	d09ff0ef          	jal	ra,40000e98 <printchar.part.0>
40001194:	fe9ff06f          	jal	zero,4000117c <vsprintf+0x19c>
40001198:	00412783          	lw	a5,4(sp)
4000119c:	00a00593          	addi	a1,zero,10
400011a0:	0007a483          	lw	s1,0(a5)
400011a4:	00478793          	addi	a5,a5,4
400011a8:	00f12223          	sw	a5,4(sp)
400011ac:	f4048ce3          	beq	s1,zero,40001104 <vsprintf+0x124>
400011b0:	00058a13          	addi	s4,a1,0
400011b4:	00048c93          	addi	s9,s1,0
400011b8:	00000b93          	addi	s7,zero,0
400011bc:	000a0593          	addi	a1,s4,0
400011c0:	000c8513          	addi	a0,s9,0
400011c4:	3b8000ef          	jal	ra,4000157c <__udivsi3>
400011c8:	00050813          	addi	a6,a0,0
400011cc:	000a0593          	addi	a1,s4,0
400011d0:	000c8513          	addi	a0,s9,0
400011d4:	01912023          	sw	s9,0(sp)
400011d8:	00080c93          	addi	s9,a6,0
400011dc:	408000ef          	jal	ra,400015e4 <__umodsi3>
400011e0:	00812783          	lw	a5,8(sp)
400011e4:	000b8493          	addi	s1,s7,0
400011e8:	001b8b93          	addi	s7,s7,1
400011ec:	00a78533          	add	a0,a5,a0
400011f0:	00054503          	lbu	a0,0(a0)
400011f4:	00012783          	lw	a5,0(sp)
400011f8:	01798833          	add	a6,s3,s7
400011fc:	fea80fa3          	sb	a0,-1(a6)
40001200:	fb47fee3          	bgeu	a5,s4,400011bc <vsprintf+0x1dc>
40001204:	417b0733          	sub	a4,s6,s7
40001208:	fff70c93          	addi	s9,a4,-1
4000120c:	f0e048e3          	blt	zero,a4,4000111c <vsprintf+0x13c>
40001210:	009984b3          	add	s1,s3,s1
40001214:	f51ff06f          	jal	zero,40001164 <vsprintf+0x184>
40001218:	00412783          	lw	a5,4(sp)
4000121c:	00a00593          	addi	a1,zero,10
40001220:	0007a483          	lw	s1,0(a5)
40001224:	00478a13          	addi	s4,a5,4
40001228:	01412223          	sw	s4,4(sp)
4000122c:	ec04dae3          	bge	s1,zero,40001100 <vsprintf+0x120>
40001230:	40900cb3          	sub	s9,zero,s1
40001234:	1a040063          	beq	s0,zero,400013d4 <vsprintf+0x3f4>
40001238:	00042703          	lw	a4,0(s0)
4000123c:	02d00593          	addi	a1,zero,45
40001240:	00b70023          	sb	a1,0(a4)
40001244:	00042703          	lw	a4,0(s0)
40001248:	00170713          	addi	a4,a4,1
4000124c:	00e42023          	sw	a4,0(s0)
40001250:	01412223          	sw	s4,4(sp)
40001254:	fffb0b13          	addi	s6,s6,-1
40001258:	00a00a13          	addi	s4,zero,10
4000125c:	f5dff06f          	jal	zero,400011b8 <vsprintf+0x1d8>
40001260:	00412783          	lw	a5,4(sp)
40001264:	0007a503          	lw	a0,0(a5)
40001268:	00478a13          	addi	s4,a5,4
4000126c:	14040263          	beq	s0,zero,400013b0 <vsprintf+0x3d0>
40001270:	00042783          	lw	a5,0(s0)
40001274:	01412223          	sw	s4,4(sp)
40001278:	00a78023          	sb	a0,0(a5)
4000127c:	00042783          	lw	a5,0(s0)
40001280:	00178793          	addi	a5,a5,1
40001284:	00f42023          	sw	a5,0(s0)
40001288:	001c4783          	lbu	a5,1(s8)
4000128c:	de0792e3          	bne	a5,zero,40001070 <vsprintf+0x90>
40001290:	00040c63          	beq	s0,zero,400012a8 <vsprintf+0x2c8>
40001294:	00042783          	lw	a5,0(s0)
40001298:	00078023          	sb	zero,0(a5)
4000129c:	00042783          	lw	a5,0(s0)
400012a0:	00178793          	addi	a5,a5,1
400012a4:	00f42023          	sw	a5,0(s0)
400012a8:	04c12083          	lw	ra,76(sp)
400012ac:	04812403          	lw	s0,72(sp)
400012b0:	04412483          	lw	s1,68(sp)
400012b4:	04012903          	lw	s2,64(sp)
400012b8:	03c12983          	lw	s3,60(sp)
400012bc:	03812a03          	lw	s4,56(sp)
400012c0:	03412a83          	lw	s5,52(sp)
400012c4:	03012b03          	lw	s6,48(sp)
400012c8:	02c12b83          	lw	s7,44(sp)
400012cc:	02812c03          	lw	s8,40(sp)
400012d0:	02412c83          	lw	s9,36(sp)
400012d4:	00000513          	addi	a0,zero,0
400012d8:	05010113          	addi	sp,sp,80
400012dc:	00008067          	jalr	zero,0(ra)
400012e0:	00412783          	lw	a5,4(sp)
400012e4:	0007a483          	lw	s1,0(a5)
400012e8:	00478a13          	addi	s4,a5,4
400012ec:	0a048a63          	beq	s1,zero,400013a0 <vsprintf+0x3c0>
400012f0:	0004c503          	lbu	a0,0(s1)
400012f4:	02050863          	beq	a0,zero,40001324 <vsprintf+0x344>
400012f8:	040b0c63          	beq	s6,zero,40001350 <vsprintf+0x370>
400012fc:	0c040263          	beq	s0,zero,400013c0 <vsprintf+0x3e0>
40001300:	00042783          	lw	a5,0(s0)
40001304:	00a78023          	sb	a0,0(a5)
40001308:	00042783          	lw	a5,0(s0)
4000130c:	00178793          	addi	a5,a5,1
40001310:	00f42023          	sw	a5,0(s0)
40001314:	0014c503          	lbu	a0,1(s1)
40001318:	fffb0b13          	addi	s6,s6,-1
4000131c:	00148493          	addi	s1,s1,1
40001320:	fc051ce3          	bne	a0,zero,400012f8 <vsprintf+0x318>
40001324:	fffb0493          	addi	s1,s6,-1
40001328:	fff00c93          	addi	s9,zero,-1
4000132c:	03605263          	bge	zero,s6,40001350 <vsprintf+0x370>
40001330:	08040c63          	beq	s0,zero,400013c8 <vsprintf+0x3e8>
40001334:	00042783          	lw	a5,0(s0)
40001338:	01578023          	sb	s5,0(a5)
4000133c:	00042783          	lw	a5,0(s0)
40001340:	00178793          	addi	a5,a5,1
40001344:	00f42023          	sw	a5,0(s0)
40001348:	fff48493          	addi	s1,s1,-1
4000134c:	ff9492e3          	bne	s1,s9,40001330 <vsprintf+0x350>
40001350:	01412223          	sw	s4,4(sp)
40001354:	d15ff06f          	jal	zero,40001068 <vsprintf+0x88>
40001358:	00078513          	addi	a0,a5,0
4000135c:	b3dff0ef          	jal	ra,40000e98 <printchar.part.0>
40001360:	000c0793          	addi	a5,s8,0
40001364:	00090c13          	addi	s8,s2,0
40001368:	00078913          	addi	s2,a5,0
4000136c:	cfdff06f          	jal	zero,40001068 <vsprintf+0x88>
40001370:	00000b13          	addi	s6,zero,0
40001374:	002b1713          	slli	a4,s6,0x2
40001378:	01670733          	add	a4,a4,s6
4000137c:	001c0c13          	addi	s8,s8,1
40001380:	00171713          	slli	a4,a4,0x1
40001384:	00f70733          	add	a4,a4,a5
40001388:	000c4783          	lbu	a5,0(s8)
4000138c:	fd070b13          	addi	s6,a4,-48
40001390:	fd078713          	addi	a4,a5,-48
40001394:	0ff77713          	andi	a4,a4,255
40001398:	fce5fee3          	bgeu	a1,a4,40001374 <vsprintf+0x394>
4000139c:	d11ff06f          	jal	zero,400010ac <vsprintf+0xcc>
400013a0:	400037b7          	lui	a5,0x40003
400013a4:	03c00513          	addi	a0,zero,60
400013a8:	b0078493          	addi	s1,a5,-1280 # 40002b00 <_etext+0x228>
400013ac:	f4dff06f          	jal	zero,400012f8 <vsprintf+0x318>
400013b0:	0ff57513          	andi	a0,a0,255
400013b4:	ae5ff0ef          	jal	ra,40000e98 <printchar.part.0>
400013b8:	01412223          	sw	s4,4(sp)
400013bc:	cadff06f          	jal	zero,40001068 <vsprintf+0x88>
400013c0:	ad9ff0ef          	jal	ra,40000e98 <printchar.part.0>
400013c4:	f51ff06f          	jal	zero,40001314 <vsprintf+0x334>
400013c8:	000a8513          	addi	a0,s5,0
400013cc:	acdff0ef          	jal	ra,40000e98 <printchar.part.0>
400013d0:	f79ff06f          	jal	zero,40001348 <vsprintf+0x368>
400013d4:	02d00513          	addi	a0,zero,45
400013d8:	81cff0ef          	jal	ra,400003f4 <putchar>
400013dc:	e75ff06f          	jal	zero,40001250 <vsprintf+0x270>

400013e0 <strncpy>:
400013e0:	00050793          	addi	a5,a0,0
400013e4:	00000713          	addi	a4,zero,0
400013e8:	00c04663          	blt	zero,a2,400013f4 <strncpy+0x14>
400013ec:	03c0006f          	jal	zero,40001428 <strncpy+0x48>
400013f0:	02e60c63          	beq	a2,a4,40001428 <strncpy+0x48>
400013f4:	00e586b3          	add	a3,a1,a4
400013f8:	0006c683          	lbu	a3,0(a3)
400013fc:	00178793          	addi	a5,a5,1
40001400:	00170713          	addi	a4,a4,1
40001404:	fed78fa3          	sb	a3,-1(a5)
40001408:	fe0694e3          	bne	a3,zero,400013f0 <strncpy+0x10>
4000140c:	00c75e63          	bge	a4,a2,40001428 <strncpy+0x48>
40001410:	40e60733          	sub	a4,a2,a4
40001414:	00e78733          	add	a4,a5,a4
40001418:	00178793          	addi	a5,a5,1
4000141c:	fe078fa3          	sb	zero,-1(a5)
40001420:	fef71ce3          	bne	a4,a5,40001418 <strncpy+0x38>
40001424:	00008067          	jalr	zero,0(ra)
40001428:	00008067          	jalr	zero,0(ra)

4000142c <memset>:
4000142c:	0ff5f593          	andi	a1,a1,255
40001430:	00c50733          	add	a4,a0,a2
40001434:	00050793          	addi	a5,a0,0
40001438:	00060863          	beq	a2,zero,40001448 <memset+0x1c>
4000143c:	00178793          	addi	a5,a5,1
40001440:	feb78fa3          	sb	a1,-1(a5)
40001444:	fee79ce3          	bne	a5,a4,4000143c <memset+0x10>
40001448:	00008067          	jalr	zero,0(ra)

4000144c <printf>:
4000144c:	fc010113          	addi	sp,sp,-64
40001450:	02410313          	addi	t1,sp,36
40001454:	02b12223          	sw	a1,36(sp)
40001458:	02c12423          	sw	a2,40(sp)
4000145c:	00050593          	addi	a1,a0,0
40001460:	00030613          	addi	a2,t1,0
40001464:	00000513          	addi	a0,zero,0
40001468:	00112e23          	sw	ra,28(sp)
4000146c:	02d12623          	sw	a3,44(sp)
40001470:	02e12823          	sw	a4,48(sp)
40001474:	02f12a23          	sw	a5,52(sp)
40001478:	03012c23          	sw	a6,56(sp)
4000147c:	03112e23          	sw	a7,60(sp)
40001480:	00612623          	sw	t1,12(sp)
40001484:	b5dff0ef          	jal	ra,40000fe0 <vsprintf>
40001488:	01c12083          	lw	ra,28(sp)
4000148c:	04010113          	addi	sp,sp,64
40001490:	00008067          	jalr	zero,0(ra)

40001494 <__divsi3>:
40001494:	00000613          	addi	a2,zero,0
40001498:	06054263          	blt	a0,zero,400014fc <__divsi3+0x68>
4000149c:	0005d663          	bge	a1,zero,400014a8 <__divsi3+0x14>
400014a0:	40b005b3          	sub	a1,zero,a1
400014a4:	00164613          	xori	a2,a2,1
400014a8:	00050693          	addi	a3,a0,0
400014ac:	02000713          	addi	a4,zero,32
400014b0:	00100793          	addi	a5,zero,1
400014b4:	00a5e663          	bltu	a1,a0,400014c0 <__divsi3+0x2c>
400014b8:	01c0006f          	jal	zero,400014d4 <__divsi3+0x40>
400014bc:	04070663          	beq	a4,zero,40001508 <__divsi3+0x74>
400014c0:	00159593          	slli	a1,a1,0x1
400014c4:	fff70713          	addi	a4,a4,-1
400014c8:	00179793          	slli	a5,a5,0x1
400014cc:	fea5e8e3          	bltu	a1,a0,400014bc <__divsi3+0x28>
400014d0:	02078c63          	beq	a5,zero,40001508 <__divsi3+0x74>
400014d4:	00000513          	addi	a0,zero,0
400014d8:	00b6e663          	bltu	a3,a1,400014e4 <__divsi3+0x50>
400014dc:	40b686b3          	sub	a3,a3,a1
400014e0:	00f56533          	or	a0,a0,a5
400014e4:	0017d793          	srli	a5,a5,0x1
400014e8:	0015d593          	srli	a1,a1,0x1
400014ec:	fe0796e3          	bne	a5,zero,400014d8 <__divsi3+0x44>
400014f0:	00060463          	beq	a2,zero,400014f8 <__divsi3+0x64>
400014f4:	40a00533          	sub	a0,zero,a0
400014f8:	00008067          	jalr	zero,0(ra)
400014fc:	40a00533          	sub	a0,zero,a0
40001500:	00100613          	addi	a2,zero,1
40001504:	f99ff06f          	jal	zero,4000149c <__divsi3+0x8>
40001508:	00000513          	addi	a0,zero,0
4000150c:	fe5ff06f          	jal	zero,400014f0 <__divsi3+0x5c>

40001510 <__modsi3>:
40001510:	00000613          	addi	a2,zero,0
40001514:	00055663          	bge	a0,zero,40001520 <__modsi3+0x10>
40001518:	40a00533          	sub	a0,zero,a0
4000151c:	00100613          	addi	a2,zero,1
40001520:	41f5d793          	srai	a5,a1,0x1f
40001524:	00b7c5b3          	xor	a1,a5,a1
40001528:	40f585b3          	sub	a1,a1,a5
4000152c:	00050693          	addi	a3,a0,0
40001530:	02000713          	addi	a4,zero,32
40001534:	00100793          	addi	a5,zero,1
40001538:	00a5e663          	bltu	a1,a0,40001544 <__modsi3+0x34>
4000153c:	01c0006f          	jal	zero,40001558 <__modsi3+0x48>
40001540:	02070863          	beq	a4,zero,40001570 <__modsi3+0x60>
40001544:	00159593          	slli	a1,a1,0x1
40001548:	fff70713          	addi	a4,a4,-1
4000154c:	00179793          	slli	a5,a5,0x1
40001550:	fea5e8e3          	bltu	a1,a0,40001540 <__modsi3+0x30>
40001554:	00078e63          	beq	a5,zero,40001570 <__modsi3+0x60>
40001558:	0017d793          	srli	a5,a5,0x1
4000155c:	00b6e463          	bltu	a3,a1,40001564 <__modsi3+0x54>
40001560:	40b686b3          	sub	a3,a3,a1
40001564:	0015d593          	srli	a1,a1,0x1
40001568:	fe0798e3          	bne	a5,zero,40001558 <__modsi3+0x48>
4000156c:	00068513          	addi	a0,a3,0
40001570:	00060463          	beq	a2,zero,40001578 <__modsi3+0x68>
40001574:	40a00533          	sub	a0,zero,a0
40001578:	00008067          	jalr	zero,0(ra)

4000157c <__udivsi3>:
4000157c:	00050713          	addi	a4,a0,0
40001580:	04a5fc63          	bgeu	a1,a0,400015d8 <__udivsi3+0x5c>
40001584:	0405ca63          	blt	a1,zero,400015d8 <__udivsi3+0x5c>
40001588:	02000513          	addi	a0,zero,32
4000158c:	00100793          	addi	a5,zero,1
40001590:	00c0006f          	jal	zero,4000159c <__udivsi3+0x20>
40001594:	02050c63          	beq	a0,zero,400015cc <__udivsi3+0x50>
40001598:	0005cc63          	blt	a1,zero,400015b0 <__udivsi3+0x34>
4000159c:	00159593          	slli	a1,a1,0x1
400015a0:	fff50513          	addi	a0,a0,-1
400015a4:	00179793          	slli	a5,a5,0x1
400015a8:	fee5e6e3          	bltu	a1,a4,40001594 <__udivsi3+0x18>
400015ac:	02078263          	beq	a5,zero,400015d0 <__udivsi3+0x54>
400015b0:	00000513          	addi	a0,zero,0
400015b4:	00b76663          	bltu	a4,a1,400015c0 <__udivsi3+0x44>
400015b8:	40b70733          	sub	a4,a4,a1
400015bc:	00f56533          	or	a0,a0,a5
400015c0:	0017d793          	srli	a5,a5,0x1
400015c4:	0015d593          	srli	a1,a1,0x1
400015c8:	fe0796e3          	bne	a5,zero,400015b4 <__udivsi3+0x38>
400015cc:	00008067          	jalr	zero,0(ra)
400015d0:	00000513          	addi	a0,zero,0
400015d4:	00008067          	jalr	zero,0(ra)
400015d8:	00100793          	addi	a5,zero,1
400015dc:	00000513          	addi	a0,zero,0
400015e0:	fd5ff06f          	jal	zero,400015b4 <__udivsi3+0x38>

400015e4 <__umodsi3>:
400015e4:	04a5f663          	bgeu	a1,a0,40001630 <__umodsi3+0x4c>
400015e8:	0405c463          	blt	a1,zero,40001630 <__umodsi3+0x4c>
400015ec:	02000713          	addi	a4,zero,32
400015f0:	00100793          	addi	a5,zero,1
400015f4:	00c0006f          	jal	zero,40001600 <__umodsi3+0x1c>
400015f8:	02070863          	beq	a4,zero,40001628 <__umodsi3+0x44>
400015fc:	0005cc63          	blt	a1,zero,40001614 <__umodsi3+0x30>
40001600:	00159593          	slli	a1,a1,0x1
40001604:	fff70713          	addi	a4,a4,-1
40001608:	00179793          	slli	a5,a5,0x1
4000160c:	fea5e6e3          	bltu	a1,a0,400015f8 <__umodsi3+0x14>
40001610:	00078e63          	beq	a5,zero,4000162c <__umodsi3+0x48>
40001614:	0017d793          	srli	a5,a5,0x1
40001618:	00b56463          	bltu	a0,a1,40001620 <__umodsi3+0x3c>
4000161c:	40b50533          	sub	a0,a0,a1
40001620:	0015d593          	srli	a1,a1,0x1
40001624:	fe0798e3          	bne	a5,zero,40001614 <__umodsi3+0x30>
40001628:	00008067          	jalr	zero,0(ra)
4000162c:	00008067          	jalr	zero,0(ra)
40001630:	00100793          	addi	a5,zero,1
40001634:	fe1ff06f          	jal	zero,40001614 <__umodsi3+0x30>

40001638 <__udivdi3>:
40001638:	00d667b3          	or	a5,a2,a3
4000163c:	00078663          	beq	a5,zero,40001648 <__udivdi3+0x10>
40001640:	00000713          	addi	a4,zero,0
40001644:	861ff06f          	jal	zero,40000ea4 <__udivmoddi4.part.0>
40001648:	00100513          	addi	a0,zero,1
4000164c:	00000593          	addi	a1,zero,0
40001650:	00008067          	jalr	zero,0(ra)

40001654 <main>:
40001654:	fe010113          	addi	sp,sp,-32
40001658:	00112e23          	sw	ra,28(sp)
4000165c:	00812c23          	sw	s0,24(sp)
40001660:	00912a23          	sw	s1,20(sp)
40001664:	01212823          	sw	s2,16(sp)
40001668:	01312623          	sw	s3,12(sp)
4000166c:	db1fe0ef          	jal	ra,4000041c <_hardware_init>
40001670:	00100513          	addi	a0,zero,1
40001674:	5c0000ef          	jal	ra,40001c34 <hf_schedlock>
40001678:	00000513          	addi	a0,zero,0
4000167c:	b79fe0ef          	jal	ra,400001f4 <_interrupt_set>
40001680:	40003537          	lui	a0,0x40003
40001684:	b8c50513          	addi	a0,a0,-1140 # 40002b8c <_etext+0x2b4>
40001688:	c40ff0ef          	jal	ra,40000ac8 <kprintf>
4000168c:	400037b7          	lui	a5,0x40003
40001690:	05878793          	addi	a5,a5,88 # 40003058 <oops.1297>
40001694:	0007a683          	lw	a3,0(a5)
40001698:	baadd737          	lui	a4,0xbaadd
4000169c:	00d70713          	addi	a4,a4,13 # baadd00d <_stack+0x6aadd011>
400016a0:	02e68663          	beq	a3,a4,400016cc <main+0x78>
400016a4:	00100513          	addi	a0,zero,1
400016a8:	430000ef          	jal	ra,40001ad8 <panic>
400016ac:	01c12083          	lw	ra,28(sp)
400016b0:	01812403          	lw	s0,24(sp)
400016b4:	01412483          	lw	s1,20(sp)
400016b8:	01012903          	lw	s2,16(sp)
400016bc:	00c12983          	lw	s3,12(sp)
400016c0:	00000513          	addi	a0,zero,0
400016c4:	02010113          	addi	sp,sp,32
400016c8:	00008067          	jalr	zero,0(ra)
400016cc:	40003537          	lui	a0,0x40003
400016d0:	ba050513          	addi	a0,a0,-1120 # 40002ba0 <_etext+0x2c8>
400016d4:	0007a023          	sw	zero,0(a5)
400016d8:	bf0ff0ef          	jal	ra,40000ac8 <kprintf>
400016dc:	40003737          	lui	a4,0x40003
400016e0:	400036b7          	lui	a3,0x40003
400016e4:	40003637          	lui	a2,0x40003
400016e8:	400035b7          	lui	a1,0x40003
400016ec:	40003537          	lui	a0,0x40003
400016f0:	be070713          	addi	a4,a4,-1056 # 40002be0 <_etext+0x308>
400016f4:	bec68693          	addi	a3,a3,-1044 # 40002bec <_etext+0x314>
400016f8:	bf860613          	addi	a2,a2,-1032 # 40002bf8 <_etext+0x320>
400016fc:	c0058593          	addi	a1,a1,-1024 # 40002c00 <_etext+0x328>
40001700:	c0c50513          	addi	a0,a0,-1012 # 40002c0c <_etext+0x334>
40001704:	bc4ff0ef          	jal	ra,40000ac8 <kprintf>
40001708:	40003537          	lui	a0,0x40003
4000170c:	c2c50513          	addi	a0,a0,-980 # 40002c2c <_etext+0x354>
40001710:	bb8ff0ef          	jal	ra,40000ac8 <kprintf>
40001714:	40003537          	lui	a0,0x40003
40001718:	c6450513          	addi	a0,a0,-924 # 40002c64 <_etext+0x38c>
4000171c:	bacff0ef          	jal	ra,40000ac8 <kprintf>
40001720:	400035b7          	lui	a1,0x40003
40001724:	40003537          	lui	a0,0x40003
40001728:	ca458593          	addi	a1,a1,-860 # 40002ca4 <_etext+0x3cc>
4000172c:	cb450513          	addi	a0,a0,-844 # 40002cb4 <_etext+0x3dc>
40001730:	b98ff0ef          	jal	ra,40000ac8 <kprintf>
40001734:	000065b7          	lui	a1,0x6
40001738:	40003537          	lui	a0,0x40003
4000173c:	1a858593          	addi	a1,a1,424 # 61a8 <_entry-0x3fff9e58>
40001740:	cc850513          	addi	a0,a0,-824 # 40002cc8 <_etext+0x3f0>
40001744:	b84ff0ef          	jal	ra,40000ac8 <kprintf>
40001748:	0007a5b7          	lui	a1,0x7a
4000174c:	40003537          	lui	a0,0x40003
40001750:	12058593          	addi	a1,a1,288 # 7a120 <_entry-0x3ff85ee0>
40001754:	ce050513          	addi	a0,a0,-800 # 40002ce0 <_etext+0x408>
40001758:	b70ff0ef          	jal	ra,40000ac8 <kprintf>
4000175c:	40003537          	lui	a0,0x40003
40001760:	01e00593          	addi	a1,zero,30
40001764:	cfc50513          	addi	a0,a0,-772 # 40002cfc <_etext+0x424>
40001768:	40003437          	lui	s0,0x40003
4000176c:	000014b7          	lui	s1,0x1
40001770:	b58ff0ef          	jal	ra,40000ac8 <kprintf>
40001774:	09040413          	addi	s0,s0,144 # 40003090 <krnl_tcb>
40001778:	1d048493          	addi	s1,s1,464 # 11d0 <_entry-0x3fffee30>
4000177c:	cc5fe0ef          	jal	ra,40000440 <_vm_init>
40001780:	009404b3          	add	s1,s0,s1
40001784:	4007e937          	lui	s2,0x4007e
40001788:	fff00993          	addi	s3,zero,-1
4000178c:	00240513          	addi	a0,s0,2
40001790:	01400613          	addi	a2,zero,20
40001794:	00000593          	addi	a1,zero,0
40001798:	38892423          	sw	s0,904(s2) # 4007e388 <krnl_task>
4000179c:	01341023          	sh	s3,0(s0)
400017a0:	c8dff0ef          	jal	ra,4000142c <memset>
400017a4:	38892783          	lw	a5,904(s2)
400017a8:	09840413          	addi	s0,s0,152
400017ac:	00079b23          	sh	zero,22(a5)
400017b0:	00078c23          	sb	zero,24(a5)
400017b4:	0007ae23          	sw	zero,28(a5)
400017b8:	0207a023          	sw	zero,32(a5)
400017bc:	0207a223          	sw	zero,36(a5)
400017c0:	0207a423          	sw	zero,40(a5)
400017c4:	0207a623          	sw	zero,44(a5)
400017c8:	0207a823          	sw	zero,48(a5)
400017cc:	0207aa23          	sw	zero,52(a5)
400017d0:	0807a423          	sw	zero,136(a5)
400017d4:	0807a623          	sw	zero,140(a5)
400017d8:	0807a823          	sw	zero,144(a5)
400017dc:	0807aa23          	sw	zero,148(a5)
400017e0:	fa9416e3          	bne	s0,s1,4000178c <main+0x138>
400017e4:	4007e737          	lui	a4,0x4007e
400017e8:	38071a23          	sh	zero,916(a4) # 4007e394 <krnl_tasks>
400017ec:	4007e737          	lui	a4,0x4007e
400017f0:	38071223          	sh	zero,900(a4) # 4007e384 <krnl_current_task>
400017f4:	4007e737          	lui	a4,0x4007e
400017f8:	3a071e23          	sh	zero,956(a4) # 4007e3bc <krnl_schedule>
400017fc:	4007e7b7          	lui	a5,0x4007e
40001800:	40002737          	lui	a4,0x40002
40001804:	39878793          	addi	a5,a5,920 # 4007e398 <krnl_pcb>
40001808:	4d870713          	addi	a4,a4,1240 # 400024d8 <sched_edf>
4000180c:	00e7a023          	sw	a4,0(a5)
40001810:	40002737          	lui	a4,0x40002
40001814:	3a870713          	addi	a4,a4,936 # 400023a8 <sched_priorityrr>
40001818:	01e00513          	addi	a0,zero,30
4000181c:	00e7a223          	sw	a4,4(a5)
40001820:	0007a423          	sw	zero,8(a5)
40001824:	0007a623          	sw	zero,12(a5)
40001828:	0007a823          	sw	zero,16(a5)
4000182c:	0007aa23          	sw	zero,20(a5)
40001830:	45c000ef          	jal	ra,40001c8c <hf_queue_create>
40001834:	4007e7b7          	lui	a5,0x4007e
40001838:	3aa7aa23          	sw	a0,948(a5) # 4007e3b4 <krnl_run_queue>
4000183c:	04050863          	beq	a0,zero,4000188c <main+0x238>
40001840:	01e00513          	addi	a0,zero,30
40001844:	448000ef          	jal	ra,40001c8c <hf_queue_create>
40001848:	4007e7b7          	lui	a5,0x4007e
4000184c:	3ca7a023          	sw	a0,960(a5) # 4007e3c0 <krnl_delay_queue>
40001850:	04050a63          	beq	a0,zero,400018a4 <main+0x250>
40001854:	01e00513          	addi	a0,zero,30
40001858:	434000ef          	jal	ra,40001c8c <hf_queue_create>
4000185c:	4007e7b7          	lui	a5,0x4007e
40001860:	3aa7ac23          	sw	a0,952(a5) # 4007e3b8 <krnl_rt_queue>
40001864:	02050a63          	beq	a0,zero,40001898 <main+0x244>
40001868:	c09fe0ef          	jal	ra,40000470 <_sched_init>
4000186c:	c1dfe0ef          	jal	ra,40000488 <_timer_init>
40001870:	e01fe0ef          	jal	ra,40000670 <_timer_reset>
40001874:	c45fe0ef          	jal	ra,400004b8 <_irq_init>
40001878:	c71fe0ef          	jal	ra,400004e8 <_device_init>
4000187c:	c79fe0ef          	jal	ra,400004f4 <_task_init>
40001880:	00000513          	addi	a0,zero,0
40001884:	254000ef          	jal	ra,40001ad8 <panic>
40001888:	e25ff06f          	jal	zero,400016ac <main+0x58>
4000188c:	00400513          	addi	a0,zero,4
40001890:	248000ef          	jal	ra,40001ad8 <panic>
40001894:	fadff06f          	jal	zero,40001840 <main+0x1ec>
40001898:	00400513          	addi	a0,zero,4
4000189c:	23c000ef          	jal	ra,40001ad8 <panic>
400018a0:	fc9ff06f          	jal	zero,40001868 <main+0x214>
400018a4:	00400513          	addi	a0,zero,4
400018a8:	230000ef          	jal	ra,40001ad8 <panic>
400018ac:	fa9ff06f          	jal	zero,40001854 <main+0x200>

400018b0 <hf_free>:
400018b0:	ff010113          	addi	sp,sp,-16
400018b4:	00912223          	sw	s1,4(sp)
400018b8:	400034b7          	lui	s1,0x40003
400018bc:	00812423          	sw	s0,8(sp)
400018c0:	00050413          	addi	s0,a0,0
400018c4:	06c48513          	addi	a0,s1,108 # 4000306c <krnl_malloc>
400018c8:	00112623          	sw	ra,12(sp)
400018cc:	1b0000ef          	jal	ra,40001a7c <hf_mtxlock>
400018d0:	ffc42703          	lw	a4,-4(s0)
400018d4:	4007e6b7          	lui	a3,0x4007e
400018d8:	3b06a783          	lw	a5,944(a3) # 4007e3b0 <krnl_free>
400018dc:	4007e637          	lui	a2,0x4007e
400018e0:	39062603          	lw	a2,912(a2) # 4007e390 <first_free>
400018e4:	ffe77713          	andi	a4,a4,-2
400018e8:	fee42e23          	sw	a4,-4(s0)
400018ec:	00878793          	addi	a5,a5,8
400018f0:	00812403          	lw	s0,8(sp)
400018f4:	00c12083          	lw	ra,12(sp)
400018f8:	00e787b3          	add	a5,a5,a4
400018fc:	06c48513          	addi	a0,s1,108
40001900:	40004737          	lui	a4,0x40004
40001904:	00412483          	lw	s1,4(sp)
40001908:	26c72023          	sw	a2,608(a4) # 40004260 <last_free>
4000190c:	3af6a823          	sw	a5,944(a3)
40001910:	01010113          	addi	sp,sp,16
40001914:	1bc0006f          	jal	zero,40001ad0 <hf_mtxunlock>

40001918 <hf_malloc>:
40001918:	ff010113          	addi	sp,sp,-16
4000191c:	01212023          	sw	s2,0(sp)
40001920:	40003937          	lui	s2,0x40003
40001924:	00912223          	sw	s1,4(sp)
40001928:	00350493          	addi	s1,a0,3
4000192c:	06c90513          	addi	a0,s2,108 # 4000306c <krnl_malloc>
40001930:	00112623          	sw	ra,12(sp)
40001934:	00812423          	sw	s0,8(sp)
40001938:	144000ef          	jal	ra,40001a7c <hf_mtxlock>
4000193c:	40004837          	lui	a6,0x40004
40001940:	26082683          	lw	a3,608(a6) # 40004260 <last_free>
40001944:	ffc4f493          	andi	s1,s1,-4
40001948:	ff800513          	addi	a0,zero,-8
4000194c:	00848593          	addi	a1,s1,8
40001950:	00068613          	addi	a2,a3,0
40001954:	0006a403          	lw	s0,0(a3)
40001958:	0c040063          	beq	s0,zero,40001a18 <hf_malloc+0x100>
4000195c:	0046a783          	lw	a5,4(a3)
40001960:	0017f793          	andi	a5,a5,1
40001964:	00079663          	bne	a5,zero,40001970 <hf_malloc+0x58>
40001968:	0a40006f          	jal	zero,40001a0c <hf_malloc+0xf4>
4000196c:	00042403          	lw	s0,0(s0)
40001970:	00442783          	lw	a5,4(s0)
40001974:	0017f793          	andi	a5,a5,1
40001978:	fe079ae3          	bne	a5,zero,4000196c <hf_malloc+0x54>
4000197c:	00040613          	addi	a2,s0,0
40001980:	00040693          	addi	a3,s0,0
40001984:	00079e63          	bne	a5,zero,400019a0 <hf_malloc+0x88>
40001988:	0006a703          	lw	a4,0(a3)
4000198c:	00070a63          	beq	a4,zero,400019a0 <hf_malloc+0x88>
40001990:	00472783          	lw	a5,4(a4)
40001994:	00070693          	addi	a3,a4,0
40001998:	0017f793          	andi	a5,a5,1
4000199c:	fe0786e3          	beq	a5,zero,40001988 <hf_malloc+0x70>
400019a0:	40c507b3          	sub	a5,a0,a2
400019a4:	00f687b3          	add	a5,a3,a5
400019a8:	00f62223          	sw	a5,4(a2)
400019ac:	00d62023          	sw	a3,0(a2)
400019b0:	fab7e2e3          	bltu	a5,a1,40001954 <hf_malloc+0x3c>
400019b4:	4007e737          	lui	a4,0x4007e
400019b8:	3b072783          	lw	a5,944(a4) # 4007e3b0 <krnl_free>
400019bc:	00b605b3          	add	a1,a2,a1
400019c0:	26c82023          	sw	a2,608(a6)
400019c4:	0014e813          	ori	a6,s1,1
400019c8:	00b62023          	sw	a1,0(a2)
400019cc:	01062223          	sw	a6,4(a2)
400019d0:	ff878793          	addi	a5,a5,-8
400019d4:	00d5a023          	sw	a3,0(a1)
400019d8:	409784b3          	sub	s1,a5,s1
400019dc:	00a5a223          	sw	a0,4(a1)
400019e0:	06c90513          	addi	a0,s2,108
400019e4:	3a972823          	sw	s1,944(a4)
400019e8:	00860413          	addi	s0,a2,8
400019ec:	0e4000ef          	jal	ra,40001ad0 <hf_mtxunlock>
400019f0:	00c12083          	lw	ra,12(sp)
400019f4:	00040513          	addi	a0,s0,0
400019f8:	00812403          	lw	s0,8(sp)
400019fc:	00412483          	lw	s1,4(sp)
40001a00:	00012903          	lw	s2,0(sp)
40001a04:	01010113          	addi	sp,sp,16
40001a08:	00008067          	jalr	zero,0(ra)
40001a0c:	00068413          	addi	s0,a3,0
40001a10:	00040693          	addi	a3,s0,0
40001a14:	f71ff06f          	jal	zero,40001984 <hf_malloc+0x6c>
40001a18:	06c90513          	addi	a0,s2,108
40001a1c:	0b4000ef          	jal	ra,40001ad0 <hf_mtxunlock>
40001a20:	fd1ff06f          	jal	zero,400019f0 <hf_malloc+0xd8>

40001a24 <heapinit>:
40001a24:	00358713          	addi	a4,a1,3
40001a28:	ffc77713          	andi	a4,a4,-4
40001a2c:	ff858593          	addi	a1,a1,-8
40001a30:	00b505b3          	add	a1,a0,a1
40001a34:	ff070713          	addi	a4,a4,-16
40001a38:	00b52023          	sw	a1,0(a0)
40001a3c:	00e52223          	sw	a4,4(a0)
40001a40:	0005a223          	sw	zero,4(a1)
40001a44:	00050793          	addi	a5,a0,0
40001a48:	00452703          	lw	a4,4(a0)
40001a4c:	4007e6b7          	lui	a3,0x4007e
40001a50:	0005a023          	sw	zero,0(a1)
40001a54:	38f6a823          	sw	a5,912(a3) # 4007e390 <first_free>
40001a58:	40003537          	lui	a0,0x40003
40001a5c:	400046b7          	lui	a3,0x40004
40001a60:	26f6a023          	sw	a5,608(a3) # 40004260 <last_free>
40001a64:	06c50513          	addi	a0,a0,108 # 4000306c <krnl_malloc>
40001a68:	4007e7b7          	lui	a5,0x4007e
40001a6c:	3ae7a823          	sw	a4,944(a5) # 4007e3b0 <krnl_free>
40001a70:	0040006f          	jal	zero,40001a74 <hf_mtxinit>

40001a74 <hf_mtxinit>:
40001a74:	00052023          	sw	zero,0(a0)
40001a78:	00008067          	jalr	zero,0(ra)

40001a7c <hf_mtxlock>:
40001a7c:	fe010113          	addi	sp,sp,-32
40001a80:	00812c23          	sw	s0,24(sp)
40001a84:	00912a23          	sw	s1,20(sp)
40001a88:	00112e23          	sw	ra,28(sp)
40001a8c:	00050413          	addi	s0,a0,0
40001a90:	00100493          	addi	s1,zero,1
40001a94:	00000513          	addi	a0,zero,0
40001a98:	f5cfe0ef          	jal	ra,400001f4 <_interrupt_set>
40001a9c:	00a12423          	sw	a0,8(sp)
40001aa0:	00042783          	lw	a5,0(s0)
40001aa4:	00f12623          	sw	a5,12(sp)
40001aa8:	00942023          	sw	s1,0(s0)
40001aac:	00812503          	lw	a0,8(sp)
40001ab0:	f44fe0ef          	jal	ra,400001f4 <_interrupt_set>
40001ab4:	00c12783          	lw	a5,12(sp)
40001ab8:	fc978ee3          	beq	a5,s1,40001a94 <hf_mtxlock+0x18>
40001abc:	01c12083          	lw	ra,28(sp)
40001ac0:	01812403          	lw	s0,24(sp)
40001ac4:	01412483          	lw	s1,20(sp)
40001ac8:	02010113          	addi	sp,sp,32
40001acc:	00008067          	jalr	zero,0(ra)

40001ad0 <hf_mtxunlock>:
40001ad0:	00052023          	sw	zero,0(a0)
40001ad4:	00008067          	jalr	zero,0(ra)

40001ad8 <panic>:
40001ad8:	ff010113          	addi	sp,sp,-16
40001adc:	00812423          	sw	s0,8(sp)
40001ae0:	00050413          	addi	s0,a0,0
40001ae4:	00000513          	addi	a0,zero,0
40001ae8:	00112623          	sw	ra,12(sp)
40001aec:	f08fe0ef          	jal	ra,400001f4 <_interrupt_set>
40001af0:	4007e7b7          	lui	a5,0x4007e
40001af4:	3847d583          	lhu	a1,900(a5) # 4007e384 <krnl_current_task>
40001af8:	40003537          	lui	a0,0x40003
40001afc:	d1050513          	addi	a0,a0,-752 # 40002d10 <_etext+0x438>
40001b00:	fc9fe0ef          	jal	ra,40000ac8 <kprintf>
40001b04:	00e00793          	addi	a5,zero,14
40001b08:	0087ee63          	bltu	a5,s0,40001b24 <panic+0x4c>
40001b0c:	40003737          	lui	a4,0x40003
40001b10:	00241793          	slli	a5,s0,0x2
40001b14:	ecc70713          	addi	a4,a4,-308 # 40002ecc <_etext+0x5f4>
40001b18:	00e787b3          	add	a5,a5,a4
40001b1c:	0007a783          	lw	a5,0(a5)
40001b20:	00078067          	jalr	zero,0(a5)
40001b24:	40003537          	lui	a0,0x40003
40001b28:	ea850513          	addi	a0,a0,-344 # 40002ea8 <_etext+0x5d0>
40001b2c:	f9dfe0ef          	jal	ra,40000ac8 <kprintf>
40001b30:	40003537          	lui	a0,0x40003
40001b34:	eb850513          	addi	a0,a0,-328 # 40002eb8 <_etext+0x5e0>
40001b38:	915ff0ef          	jal	ra,4000144c <printf>
40001b3c:	b69fe0ef          	jal	ra,400006a4 <_panic>
40001b40:	0000006f          	jal	zero,40001b40 <panic+0x68>
40001b44:	40003537          	lui	a0,0x40003
40001b48:	d6c50513          	addi	a0,a0,-660 # 40002d6c <_etext+0x494>
40001b4c:	f7dfe0ef          	jal	ra,40000ac8 <kprintf>
40001b50:	fe1ff06f          	jal	zero,40001b30 <panic+0x58>
40001b54:	40003537          	lui	a0,0x40003
40001b58:	d2c50513          	addi	a0,a0,-724 # 40002d2c <_etext+0x454>
40001b5c:	f6dfe0ef          	jal	ra,40000ac8 <kprintf>
40001b60:	fd1ff06f          	jal	zero,40001b30 <panic+0x58>
40001b64:	40003537          	lui	a0,0x40003
40001b68:	d4050513          	addi	a0,a0,-704 # 40002d40 <_etext+0x468>
40001b6c:	f5dfe0ef          	jal	ra,40000ac8 <kprintf>
40001b70:	fc1ff06f          	jal	zero,40001b30 <panic+0x58>
40001b74:	40003537          	lui	a0,0x40003
40001b78:	d5c50513          	addi	a0,a0,-676 # 40002d5c <_etext+0x484>
40001b7c:	f4dfe0ef          	jal	ra,40000ac8 <kprintf>
40001b80:	fb1ff06f          	jal	zero,40001b30 <panic+0x58>
40001b84:	40003537          	lui	a0,0x40003
40001b88:	d8050513          	addi	a0,a0,-640 # 40002d80 <_etext+0x4a8>
40001b8c:	f3dfe0ef          	jal	ra,40000ac8 <kprintf>
40001b90:	fa1ff06f          	jal	zero,40001b30 <panic+0x58>
40001b94:	40003537          	lui	a0,0x40003
40001b98:	da050513          	addi	a0,a0,-608 # 40002da0 <_etext+0x4c8>
40001b9c:	f2dfe0ef          	jal	ra,40000ac8 <kprintf>
40001ba0:	f91ff06f          	jal	zero,40001b30 <panic+0x58>
40001ba4:	40003537          	lui	a0,0x40003
40001ba8:	db050513          	addi	a0,a0,-592 # 40002db0 <_etext+0x4d8>
40001bac:	f1dfe0ef          	jal	ra,40000ac8 <kprintf>
40001bb0:	f81ff06f          	jal	zero,40001b30 <panic+0x58>
40001bb4:	40003537          	lui	a0,0x40003
40001bb8:	de050513          	addi	a0,a0,-544 # 40002de0 <_etext+0x508>
40001bbc:	f0dfe0ef          	jal	ra,40000ac8 <kprintf>
40001bc0:	f71ff06f          	jal	zero,40001b30 <panic+0x58>
40001bc4:	40003537          	lui	a0,0x40003
40001bc8:	dc850513          	addi	a0,a0,-568 # 40002dc8 <_etext+0x4f0>
40001bcc:	efdfe0ef          	jal	ra,40000ac8 <kprintf>
40001bd0:	f61ff06f          	jal	zero,40001b30 <panic+0x58>
40001bd4:	40003537          	lui	a0,0x40003
40001bd8:	dfc50513          	addi	a0,a0,-516 # 40002dfc <_etext+0x524>
40001bdc:	eedfe0ef          	jal	ra,40000ac8 <kprintf>
40001be0:	f51ff06f          	jal	zero,40001b30 <panic+0x58>
40001be4:	40003537          	lui	a0,0x40003
40001be8:	e1450513          	addi	a0,a0,-492 # 40002e14 <_etext+0x53c>
40001bec:	eddfe0ef          	jal	ra,40000ac8 <kprintf>
40001bf0:	f41ff06f          	jal	zero,40001b30 <panic+0x58>
40001bf4:	40003537          	lui	a0,0x40003
40001bf8:	e3450513          	addi	a0,a0,-460 # 40002e34 <_etext+0x55c>
40001bfc:	ecdfe0ef          	jal	ra,40000ac8 <kprintf>
40001c00:	f31ff06f          	jal	zero,40001b30 <panic+0x58>
40001c04:	40003537          	lui	a0,0x40003
40001c08:	e5450513          	addi	a0,a0,-428 # 40002e54 <_etext+0x57c>
40001c0c:	ebdfe0ef          	jal	ra,40000ac8 <kprintf>
40001c10:	f21ff06f          	jal	zero,40001b30 <panic+0x58>
40001c14:	40003537          	lui	a0,0x40003
40001c18:	e7850513          	addi	a0,a0,-392 # 40002e78 <_etext+0x5a0>
40001c1c:	eadfe0ef          	jal	ra,40000ac8 <kprintf>
40001c20:	f11ff06f          	jal	zero,40001b30 <panic+0x58>
40001c24:	40003537          	lui	a0,0x40003
40001c28:	e9450513          	addi	a0,a0,-364 # 40002e94 <_etext+0x5bc>
40001c2c:	e9dfe0ef          	jal	ra,40000ac8 <kprintf>
40001c30:	f01ff06f          	jal	zero,40001b30 <panic+0x58>

40001c34 <hf_schedlock>:
40001c34:	ff010113          	addi	sp,sp,-16
40001c38:	00112623          	sw	ra,12(sp)
40001c3c:	00812423          	sw	s0,8(sp)
40001c40:	00050413          	addi	s0,a0,0
40001c44:	9bdfe0ef          	jal	ra,40000600 <_read_us>
40001c48:	00050593          	addi	a1,a0,0
40001c4c:	40003537          	lui	a0,0x40003
40001c50:	f0850513          	addi	a0,a0,-248 # 40002f08 <_etext+0x630>
40001c54:	850ff0ef          	jal	ra,40000ca4 <dprintf>
40001c58:	4007e7b7          	lui	a5,0x4007e
40001c5c:	00040c63          	beq	s0,zero,40001c74 <hf_schedlock+0x40>
40001c60:	00c12083          	lw	ra,12(sp)
40001c64:	00812403          	lw	s0,8(sp)
40001c68:	3a079e23          	sh	zero,956(a5) # 4007e3bc <krnl_schedule>
40001c6c:	01010113          	addi	sp,sp,16
40001c70:	00008067          	jalr	zero,0(ra)
40001c74:	00c12083          	lw	ra,12(sp)
40001c78:	00812403          	lw	s0,8(sp)
40001c7c:	00100713          	addi	a4,zero,1
40001c80:	3ae79e23          	sh	a4,956(a5)
40001c84:	01010113          	addi	sp,sp,16
40001c88:	00008067          	jalr	zero,0(ra)

40001c8c <hf_queue_create>:
40001c8c:	ff010113          	addi	sp,sp,-16
40001c90:	00912223          	sw	s1,4(sp)
40001c94:	00050493          	addi	s1,a0,0
40001c98:	01400513          	addi	a0,zero,20
40001c9c:	00812423          	sw	s0,8(sp)
40001ca0:	00112623          	sw	ra,12(sp)
40001ca4:	c75ff0ef          	jal	ra,40001918 <hf_malloc>
40001ca8:	00050413          	addi	s0,a0,0
40001cac:	02050463          	beq	a0,zero,40001cd4 <hf_queue_create+0x48>
40001cb0:	00148513          	addi	a0,s1,1
40001cb4:	00a42023          	sw	a0,0(s0)
40001cb8:	00251513          	slli	a0,a0,0x2
40001cbc:	c5dff0ef          	jal	ra,40001918 <hf_malloc>
40001cc0:	00a42823          	sw	a0,16(s0)
40001cc4:	02050463          	beq	a0,zero,40001cec <hf_queue_create+0x60>
40001cc8:	00042623          	sw	zero,12(s0)
40001ccc:	00042423          	sw	zero,8(s0)
40001cd0:	00042223          	sw	zero,4(s0)
40001cd4:	00c12083          	lw	ra,12(sp)
40001cd8:	00040513          	addi	a0,s0,0
40001cdc:	00812403          	lw	s0,8(sp)
40001ce0:	00412483          	lw	s1,4(sp)
40001ce4:	01010113          	addi	sp,sp,16
40001ce8:	00008067          	jalr	zero,0(ra)
40001cec:	00040513          	addi	a0,s0,0
40001cf0:	bc1ff0ef          	jal	ra,400018b0 <hf_free>
40001cf4:	00000413          	addi	s0,zero,0
40001cf8:	fddff06f          	jal	zero,40001cd4 <hf_queue_create+0x48>

40001cfc <hf_queue_count>:
40001cfc:	00452503          	lw	a0,4(a0)
40001d00:	00008067          	jalr	zero,0(ra)

40001d04 <hf_queue_addtail>:
40001d04:	00052783          	lw	a5,0(a0)
40001d08:	06078a63          	beq	a5,zero,40001d7c <hf_queue_addtail+0x78>
40001d0c:	ff010113          	addi	sp,sp,-16
40001d10:	00912223          	sw	s1,4(sp)
40001d14:	00c52483          	lw	s1,12(a0)
40001d18:	00812423          	sw	s0,8(sp)
40001d1c:	01212023          	sw	s2,0(sp)
40001d20:	00050413          	addi	s0,a0,0
40001d24:	00058913          	addi	s2,a1,0
40001d28:	00148513          	addi	a0,s1,1
40001d2c:	00078593          	addi	a1,a5,0
40001d30:	00112623          	sw	ra,12(sp)
40001d34:	fdcff0ef          	jal	ra,40001510 <__modsi3>
40001d38:	00842783          	lw	a5,8(s0)
40001d3c:	04a78463          	beq	a5,a0,40001d84 <hf_queue_addtail+0x80>
40001d40:	01042703          	lw	a4,16(s0)
40001d44:	00442783          	lw	a5,4(s0)
40001d48:	00249493          	slli	s1,s1,0x2
40001d4c:	009704b3          	add	s1,a4,s1
40001d50:	0124a023          	sw	s2,0(s1)
40001d54:	00178793          	addi	a5,a5,1
40001d58:	00a42623          	sw	a0,12(s0)
40001d5c:	00f42223          	sw	a5,4(s0)
40001d60:	00000513          	addi	a0,zero,0
40001d64:	00c12083          	lw	ra,12(sp)
40001d68:	00812403          	lw	s0,8(sp)
40001d6c:	00412483          	lw	s1,4(sp)
40001d70:	00012903          	lw	s2,0(sp)
40001d74:	01010113          	addi	sp,sp,16
40001d78:	00008067          	jalr	zero,0(ra)
40001d7c:	fff00513          	addi	a0,zero,-1
40001d80:	00008067          	jalr	zero,0(ra)
40001d84:	fff00513          	addi	a0,zero,-1
40001d88:	fddff06f          	jal	zero,40001d64 <hf_queue_addtail+0x60>

40001d8c <hf_queue_remhead>:
40001d8c:	00052583          	lw	a1,0(a0)
40001d90:	ff010113          	addi	sp,sp,-16
40001d94:	00112623          	sw	ra,12(sp)
40001d98:	00812423          	sw	s0,8(sp)
40001d9c:	00912223          	sw	s1,4(sp)
40001da0:	04058a63          	beq	a1,zero,40001df4 <hf_queue_remhead+0x68>
40001da4:	00050413          	addi	s0,a0,0
40001da8:	00c42783          	lw	a5,12(s0)
40001dac:	00852503          	lw	a0,8(a0)
40001db0:	04f50263          	beq	a0,a5,40001df4 <hf_queue_remhead+0x68>
40001db4:	01042783          	lw	a5,16(s0)
40001db8:	00251713          	slli	a4,a0,0x2
40001dbc:	00150513          	addi	a0,a0,1
40001dc0:	00e787b3          	add	a5,a5,a4
40001dc4:	0007a483          	lw	s1,0(a5)
40001dc8:	f48ff0ef          	jal	ra,40001510 <__modsi3>
40001dcc:	00442783          	lw	a5,4(s0)
40001dd0:	00a42423          	sw	a0,8(s0)
40001dd4:	00c12083          	lw	ra,12(sp)
40001dd8:	fff78793          	addi	a5,a5,-1
40001ddc:	00f42223          	sw	a5,4(s0)
40001de0:	00812403          	lw	s0,8(sp)
40001de4:	00048513          	addi	a0,s1,0
40001de8:	00412483          	lw	s1,4(sp)
40001dec:	01010113          	addi	sp,sp,16
40001df0:	00008067          	jalr	zero,0(ra)
40001df4:	00c12083          	lw	ra,12(sp)
40001df8:	00812403          	lw	s0,8(sp)
40001dfc:	00000493          	addi	s1,zero,0
40001e00:	00048513          	addi	a0,s1,0
40001e04:	00412483          	lw	s1,4(sp)
40001e08:	01010113          	addi	sp,sp,16
40001e0c:	00008067          	jalr	zero,0(ra)

40001e10 <hf_queue_get>:
40001e10:	00052783          	lw	a5,0(a0)
40001e14:	06078663          	beq	a5,zero,40001e80 <hf_queue_get+0x70>
40001e18:	ff010113          	addi	sp,sp,-16
40001e1c:	00812423          	sw	s0,8(sp)
40001e20:	00050413          	addi	s0,a0,0
40001e24:	00442703          	lw	a4,4(s0)
40001e28:	00112623          	sw	ra,12(sp)
40001e2c:	00058513          	addi	a0,a1,0
40001e30:	02e5de63          	bge	a1,a4,40001e6c <hf_queue_get+0x5c>
40001e34:	00842703          	lw	a4,8(s0)
40001e38:	00c42683          	lw	a3,12(s0)
40001e3c:	02d70863          	beq	a4,a3,40001e6c <hf_queue_get+0x5c>
40001e40:	00078593          	addi	a1,a5,0
40001e44:	00a70533          	add	a0,a4,a0
40001e48:	ec8ff0ef          	jal	ra,40001510 <__modsi3>
40001e4c:	01042783          	lw	a5,16(s0)
40001e50:	00c12083          	lw	ra,12(sp)
40001e54:	00812403          	lw	s0,8(sp)
40001e58:	00251513          	slli	a0,a0,0x2
40001e5c:	00a787b3          	add	a5,a5,a0
40001e60:	0007a503          	lw	a0,0(a5)
40001e64:	01010113          	addi	sp,sp,16
40001e68:	00008067          	jalr	zero,0(ra)
40001e6c:	00c12083          	lw	ra,12(sp)
40001e70:	00812403          	lw	s0,8(sp)
40001e74:	00000513          	addi	a0,zero,0
40001e78:	01010113          	addi	sp,sp,16
40001e7c:	00008067          	jalr	zero,0(ra)
40001e80:	00000513          	addi	a0,zero,0
40001e84:	00008067          	jalr	zero,0(ra)

40001e88 <hf_queue_swap>:
40001e88:	fe010113          	addi	sp,sp,-32
40001e8c:	01412423          	sw	s4,8(sp)
40001e90:	00052a03          	lw	s4,0(a0)
40001e94:	00112e23          	sw	ra,28(sp)
40001e98:	00812c23          	sw	s0,24(sp)
40001e9c:	00912a23          	sw	s1,20(sp)
40001ea0:	01212823          	sw	s2,16(sp)
40001ea4:	01312623          	sw	s3,12(sp)
40001ea8:	01512223          	sw	s5,4(sp)
40001eac:	080a0a63          	beq	s4,zero,40001f40 <hf_queue_swap+0xb8>
40001eb0:	00050413          	addi	s0,a0,0
40001eb4:	00442783          	lw	a5,4(s0)
40001eb8:	00058513          	addi	a0,a1,0
40001ebc:	08f5d263          	bge	a1,a5,40001f40 <hf_queue_swap+0xb8>
40001ec0:	00060913          	addi	s2,a2,0
40001ec4:	06f65e63          	bge	a2,a5,40001f40 <hf_queue_swap+0xb8>
40001ec8:	00842a83          	lw	s5,8(s0)
40001ecc:	00c42783          	lw	a5,12(s0)
40001ed0:	06fa8863          	beq	s5,a5,40001f40 <hf_queue_swap+0xb8>
40001ed4:	000a0593          	addi	a1,s4,0
40001ed8:	00aa8533          	add	a0,s5,a0
40001edc:	e34ff0ef          	jal	ra,40001510 <__modsi3>
40001ee0:	01042983          	lw	s3,16(s0)
40001ee4:	00251493          	slli	s1,a0,0x2
40001ee8:	000a0593          	addi	a1,s4,0
40001eec:	012a8533          	add	a0,s5,s2
40001ef0:	e20ff0ef          	jal	ra,40001510 <__modsi3>
40001ef4:	00251793          	slli	a5,a0,0x2
40001ef8:	009984b3          	add	s1,s3,s1
40001efc:	00f989b3          	add	s3,s3,a5
40001f00:	0009a703          	lw	a4,0(s3)
40001f04:	0004a683          	lw	a3,0(s1)
40001f08:	00000513          	addi	a0,zero,0
40001f0c:	00e4a023          	sw	a4,0(s1)
40001f10:	01042703          	lw	a4,16(s0)
40001f14:	00f707b3          	add	a5,a4,a5
40001f18:	00d7a023          	sw	a3,0(a5)
40001f1c:	01c12083          	lw	ra,28(sp)
40001f20:	01812403          	lw	s0,24(sp)
40001f24:	01412483          	lw	s1,20(sp)
40001f28:	01012903          	lw	s2,16(sp)
40001f2c:	00c12983          	lw	s3,12(sp)
40001f30:	00812a03          	lw	s4,8(sp)
40001f34:	00412a83          	lw	s5,4(sp)
40001f38:	02010113          	addi	sp,sp,32
40001f3c:	00008067          	jalr	zero,0(ra)
40001f40:	fff00513          	addi	a0,zero,-1
40001f44:	fd9ff06f          	jal	zero,40001f1c <hf_queue_swap+0x94>

40001f48 <run_queue_next>:
40001f48:	ff010113          	addi	sp,sp,-16
40001f4c:	00812423          	sw	s0,8(sp)
40001f50:	4007e437          	lui	s0,0x4007e
40001f54:	3b442503          	lw	a0,948(s0) # 4007e3b4 <krnl_run_queue>
40001f58:	00912223          	sw	s1,4(sp)
40001f5c:	00112623          	sw	ra,12(sp)
40001f60:	4007e4b7          	lui	s1,0x4007e
40001f64:	e29ff0ef          	jal	ra,40001d8c <hf_queue_remhead>
40001f68:	38a4a423          	sw	a0,904(s1) # 4007e388 <krnl_task>
40001f6c:	00050593          	addi	a1,a0,0
40001f70:	02050e63          	beq	a0,zero,40001fac <run_queue_next+0x64>
40001f74:	3b442503          	lw	a0,948(s0)
40001f78:	d8dff0ef          	jal	ra,40001d04 <hf_queue_addtail>
40001f7c:	00051c63          	bne	a0,zero,40001f94 <run_queue_next+0x4c>
40001f80:	00c12083          	lw	ra,12(sp)
40001f84:	00812403          	lw	s0,8(sp)
40001f88:	00412483          	lw	s1,4(sp)
40001f8c:	01010113          	addi	sp,sp,16
40001f90:	00008067          	jalr	zero,0(ra)
40001f94:	00812403          	lw	s0,8(sp)
40001f98:	00c12083          	lw	ra,12(sp)
40001f9c:	00412483          	lw	s1,4(sp)
40001fa0:	00900513          	addi	a0,zero,9
40001fa4:	01010113          	addi	sp,sp,16
40001fa8:	b31ff06f          	jal	zero,40001ad8 <panic>
40001fac:	00500513          	addi	a0,zero,5
40001fb0:	b29ff0ef          	jal	ra,40001ad8 <panic>
40001fb4:	3884a583          	lw	a1,904(s1)
40001fb8:	fbdff06f          	jal	zero,40001f74 <run_queue_next+0x2c>

40001fbc <rt_schedule>:
40001fbc:	fe010113          	addi	sp,sp,-32
40001fc0:	00912a23          	sw	s1,20(sp)
40001fc4:	00112e23          	sw	ra,28(sp)
40001fc8:	00812c23          	sw	s0,24(sp)
40001fcc:	01212823          	sw	s2,16(sp)
40001fd0:	01312623          	sw	s3,12(sp)
40001fd4:	01412423          	sw	s4,8(sp)
40001fd8:	01512223          	sw	s5,4(sp)
40001fdc:	4007e4b7          	lui	s1,0x4007e
40001fe0:	14a05063          	bge	zero,a0,40002120 <rt_schedule+0x164>
40001fe4:	00050993          	addi	s3,a0,0
40001fe8:	00000a93          	addi	s5,zero,0
40001fec:	00000413          	addi	s0,zero,0
40001ff0:	4007e937          	lui	s2,0x4007e
40001ff4:	4007e4b7          	lui	s1,0x4007e
40001ff8:	00300a13          	addi	s4,zero,3
40001ffc:	08c0006f          	jal	zero,40002088 <rt_schedule+0xcc>
40002000:	3884a783          	lw	a5,904(s1) # 4007e388 <krnl_task>
40002004:	0167c703          	lbu	a4,22(a5)
40002008:	01470e63          	beq	a4,s4,40002024 <rt_schedule+0x68>
4000200c:	0347d703          	lhu	a4,52(a5)
40002010:	00070a63          	beq	a4,zero,40002024 <rt_schedule+0x68>
40002014:	000a9863          	bne	s5,zero,40002024 <rt_schedule+0x68>
40002018:	0007da83          	lhu	s5,0(a5)
4000201c:	fff70713          	addi	a4,a4,-1
40002020:	02e79a23          	sh	a4,52(a5)
40002024:	0367d703          	lhu	a4,54(a5)
40002028:	fff70713          	addi	a4,a4,-1
4000202c:	01071713          	slli	a4,a4,0x10
40002030:	01075713          	srli	a4,a4,0x10
40002034:	02e79b23          	sh	a4,54(a5)
40002038:	00071c63          	bne	a4,zero,40002050 <rt_schedule+0x94>
4000203c:	0347d703          	lhu	a4,52(a5)
40002040:	00070863          	beq	a4,zero,40002050 <rt_schedule+0x94>
40002044:	0287a703          	lw	a4,40(a5)
40002048:	00170713          	addi	a4,a4,1
4000204c:	02e7a423          	sw	a4,40(a5)
40002050:	0327d703          	lhu	a4,50(a5)
40002054:	fff70713          	addi	a4,a4,-1
40002058:	01071713          	slli	a4,a4,0x10
4000205c:	01075713          	srli	a4,a4,0x10
40002060:	02e79923          	sh	a4,50(a5)
40002064:	00071e63          	bne	a4,zero,40002080 <rt_schedule+0xc4>
40002068:	02c7d603          	lhu	a2,44(a5)
4000206c:	02e7d683          	lhu	a3,46(a5)
40002070:	0307d703          	lhu	a4,48(a5)
40002074:	02c79923          	sh	a2,50(a5)
40002078:	02d79a23          	sh	a3,52(a5)
4000207c:	02e79b23          	sh	a4,54(a5)
40002080:	00140413          	addi	s0,s0,1
40002084:	04898063          	beq	s3,s0,400020c4 <rt_schedule+0x108>
40002088:	3b892503          	lw	a0,952(s2) # 4007e3b8 <krnl_rt_queue>
4000208c:	d01ff0ef          	jal	ra,40001d8c <hf_queue_remhead>
40002090:	38a4a423          	sw	a0,904(s1)
40002094:	00050593          	addi	a1,a0,0
40002098:	00050e63          	beq	a0,zero,400020b4 <rt_schedule+0xf8>
4000209c:	3b892503          	lw	a0,952(s2)
400020a0:	c65ff0ef          	jal	ra,40001d04 <hf_queue_addtail>
400020a4:	f4050ee3          	beq	a0,zero,40002000 <rt_schedule+0x44>
400020a8:	00b00513          	addi	a0,zero,11
400020ac:	a2dff0ef          	jal	ra,40001ad8 <panic>
400020b0:	f51ff06f          	jal	zero,40002000 <rt_schedule+0x44>
400020b4:	00600513          	addi	a0,zero,6
400020b8:	a21ff0ef          	jal	ra,40001ad8 <panic>
400020bc:	3884a583          	lw	a1,904(s1)
400020c0:	fddff06f          	jal	zero,4000209c <rt_schedule+0xe0>
400020c4:	040a8e63          	beq	s5,zero,40002120 <rt_schedule+0x164>
400020c8:	002a9793          	slli	a5,s5,0x2
400020cc:	015787b3          	add	a5,a5,s5
400020d0:	00279793          	slli	a5,a5,0x2
400020d4:	415787b3          	sub	a5,a5,s5
400020d8:	40003737          	lui	a4,0x40003
400020dc:	09070713          	addi	a4,a4,144 # 40003090 <krnl_tcb>
400020e0:	00379793          	slli	a5,a5,0x3
400020e4:	00e787b3          	add	a5,a5,a4
400020e8:	0207a703          	lw	a4,32(a5)
400020ec:	38f4a423          	sw	a5,904(s1)
400020f0:	00170713          	addi	a4,a4,1
400020f4:	02e7a023          	sw	a4,32(a5)
400020f8:	01c12083          	lw	ra,28(sp)
400020fc:	01812403          	lw	s0,24(sp)
40002100:	01412483          	lw	s1,20(sp)
40002104:	01012903          	lw	s2,16(sp)
40002108:	00c12983          	lw	s3,12(sp)
4000210c:	00812a03          	lw	s4,8(sp)
40002110:	000a8513          	addi	a0,s5,0
40002114:	00412a83          	lw	s5,4(sp)
40002118:	02010113          	addi	sp,sp,32
4000211c:	00008067          	jalr	zero,0(ra)
40002120:	400037b7          	lui	a5,0x40003
40002124:	09078793          	addi	a5,a5,144 # 40003090 <krnl_tcb>
40002128:	38f4a423          	sw	a5,904(s1)
4000212c:	00000a93          	addi	s5,zero,0
40002130:	fc9ff06f          	jal	zero,400020f8 <rt_schedule+0x13c>

40002134 <dispatch_isr>:
40002134:	fd010113          	addi	sp,sp,-48
40002138:	02112623          	sw	ra,44(sp)
4000213c:	02812423          	sw	s0,40(sp)
40002140:	02912223          	sw	s1,36(sp)
40002144:	03212023          	sw	s2,32(sp)
40002148:	01312e23          	sw	s3,28(sp)
4000214c:	01412c23          	sw	s4,24(sp)
40002150:	01512a23          	sw	s5,20(sp)
40002154:	01612823          	sw	s6,16(sp)
40002158:	ca8fe0ef          	jal	ra,40000600 <_read_us>
4000215c:	00050593          	addi	a1,a0,0
40002160:	40003537          	lui	a0,0x40003
40002164:	f1c50513          	addi	a0,a0,-228 # 40002f1c <_etext+0x644>
40002168:	b3dfe0ef          	jal	ra,40000ca4 <dprintf>
4000216c:	d04fe0ef          	jal	ra,40000670 <_timer_reset>
40002170:	4007e7b7          	lui	a5,0x4007e
40002174:	3bc7d783          	lhu	a5,956(a5) # 4007e3bc <krnl_schedule>
40002178:	02079663          	bne	a5,zero,400021a4 <dispatch_isr+0x70>
4000217c:	02c12083          	lw	ra,44(sp)
40002180:	02812403          	lw	s0,40(sp)
40002184:	02412483          	lw	s1,36(sp)
40002188:	02012903          	lw	s2,32(sp)
4000218c:	01c12983          	lw	s3,28(sp)
40002190:	01812a03          	lw	s4,24(sp)
40002194:	01412a83          	lw	s5,20(sp)
40002198:	01012b03          	lw	s6,16(sp)
4000219c:	03010113          	addi	sp,sp,48
400021a0:	00008067          	jalr	zero,0(ra)
400021a4:	4007e437          	lui	s0,0x4007e
400021a8:	38445683          	lhu	a3,900(s0) # 4007e384 <krnl_current_task>
400021ac:	40003737          	lui	a4,0x40003
400021b0:	09070713          	addi	a4,a4,144 # 40003090 <krnl_tcb>
400021b4:	00269793          	slli	a5,a3,0x2
400021b8:	00d787b3          	add	a5,a5,a3
400021bc:	00279793          	slli	a5,a5,0x2
400021c0:	40d787b3          	sub	a5,a5,a3
400021c4:	00379793          	slli	a5,a5,0x3
400021c8:	03878513          	addi	a0,a5,56
400021cc:	4007ea37          	lui	s4,0x4007e
400021d0:	00e787b3          	add	a5,a5,a4
400021d4:	00a70533          	add	a0,a4,a0
400021d8:	38fa2423          	sw	a5,904(s4) # 4007e388 <krnl_task>
400021dc:	830fe0ef          	jal	ra,4000020c <_context_save>
400021e0:	00050493          	addi	s1,a0,0
400021e4:	f8051ce3          	bne	a0,zero,4000217c <dispatch_isr+0x48>
400021e8:	388a2783          	lw	a5,904(s4)
400021ec:	00200713          	addi	a4,zero,2
400021f0:	0167c683          	lbu	a3,22(a5)
400021f4:	00e69663          	bne	a3,a4,40002200 <dispatch_isr+0xcc>
400021f8:	00100713          	addi	a4,zero,1
400021fc:	00e78b23          	sb	a4,22(a5)
40002200:	08c7a703          	lw	a4,140(a5)
40002204:	b00bb7b7          	lui	a5,0xb00bb
40002208:	00b78793          	addi	a5,a5,11 # b00bb00b <_stack+0x600bb00f>
4000220c:	00072703          	lw	a4,0(a4)
40002210:	14f71263          	bne	a4,a5,40002354 <dispatch_isr+0x220>
40002214:	4007e7b7          	lui	a5,0x4007e
40002218:	3947d783          	lhu	a5,916(a5) # 4007e394 <krnl_tasks>
4000221c:	00300513          	addi	a0,zero,3
40002220:	10078663          	beq	a5,zero,4000232c <dispatch_isr+0x1f8>
40002224:	4007e937          	lui	s2,0x4007e
40002228:	3c092503          	lw	a0,960(s2) # 4007e3c0 <krnl_delay_queue>
4000222c:	ad1ff0ef          	jal	ra,40001cfc <hf_queue_count>
40002230:	00050993          	addi	s3,a0,0
40002234:	06a05463          	bge	zero,a0,4000229c <dispatch_isr+0x168>
40002238:	4007eb37          	lui	s6,0x4007e
4000223c:	4007eab7          	lui	s5,0x4007e
40002240:	0180006f          	jal	zero,40002258 <dispatch_isr+0x124>
40002244:	3b8aa503          	lw	a0,952(s5) # 4007e3b8 <krnl_rt_queue>
40002248:	abdff0ef          	jal	ra,40001d04 <hf_queue_addtail>
4000224c:	14051863          	bne	a0,zero,4000239c <dispatch_isr+0x268>
40002250:	00148493          	addi	s1,s1,1
40002254:	04998463          	beq	s3,s1,4000229c <dispatch_isr+0x168>
40002258:	3c092503          	lw	a0,960(s2)
4000225c:	b31ff0ef          	jal	ra,40001d8c <hf_queue_remhead>
40002260:	00050593          	addi	a1,a0,0
40002264:	12050263          	beq	a0,zero,40002388 <dispatch_isr+0x254>
40002268:	01c5a783          	lw	a5,28(a1)
4000226c:	fff78793          	addi	a5,a5,-1
40002270:	00f5ae23          	sw	a5,28(a1)
40002274:	0e079e63          	bne	a5,zero,40002370 <dispatch_isr+0x23c>
40002278:	02c5d783          	lhu	a5,44(a1)
4000227c:	fc0794e3          	bne	a5,zero,40002244 <dispatch_isr+0x110>
40002280:	3b4b2503          	lw	a0,948(s6) # 4007e3b4 <krnl_run_queue>
40002284:	a81ff0ef          	jal	ra,40001d04 <hf_queue_addtail>
40002288:	fc0504e3          	beq	a0,zero,40002250 <dispatch_isr+0x11c>
4000228c:	00900513          	addi	a0,zero,9
40002290:	00148493          	addi	s1,s1,1
40002294:	845ff0ef          	jal	ra,40001ad8 <panic>
40002298:	fc9990e3          	bne	s3,s1,40002258 <dispatch_isr+0x124>
4000229c:	4007e937          	lui	s2,0x4007e
400022a0:	39890913          	addi	s2,s2,920 # 4007e398 <krnl_pcb>
400022a4:	00092783          	lw	a5,0(s2)
400022a8:	000780e7          	jalr	ra,0(a5)
400022ac:	01051493          	slli	s1,a0,0x10
400022b0:	0104d493          	srli	s1,s1,0x10
400022b4:	38941223          	sh	s1,900(s0)
400022b8:	00049c63          	bne	s1,zero,400022d0 <dispatch_isr+0x19c>
400022bc:	00492783          	lw	a5,4(s2)
400022c0:	000780e7          	jalr	ra,0(a5)
400022c4:	01051493          	slli	s1,a0,0x10
400022c8:	0104d493          	srli	s1,s1,0x10
400022cc:	38941223          	sh	s1,900(s0)
400022d0:	388a2783          	lw	a5,904(s4)
400022d4:	00c92583          	lw	a1,12(s2)
400022d8:	00200713          	addi	a4,zero,2
400022dc:	02c7d403          	lhu	s0,44(a5)
400022e0:	02e7d983          	lhu	s3,46(a5)
400022e4:	0307da83          	lhu	s5,48(a5)
400022e8:	00e78b23          	sb	a4,22(a5)
400022ec:	00158593          	addi	a1,a1,1
400022f0:	00b92623          	sw	a1,12(s2)
400022f4:	b0cfe0ef          	jal	ra,40000600 <_read_us>
400022f8:	00050793          	addi	a5,a0,0
400022fc:	40003537          	lui	a0,0x40003
40002300:	000a8713          	addi	a4,s5,0
40002304:	00098693          	addi	a3,s3,0
40002308:	00040613          	addi	a2,s0,0
4000230c:	00048593          	addi	a1,s1,0
40002310:	f2c50513          	addi	a0,a0,-212 # 40002f2c <_etext+0x654>
40002314:	991fe0ef          	jal	ra,40000ca4 <dprintf>
40002318:	388a2503          	lw	a0,904(s4)
4000231c:	00100593          	addi	a1,zero,1
40002320:	03850513          	addi	a0,a0,56
40002324:	f25fd0ef          	jal	ra,40000248 <_context_restore>
40002328:	0ff00513          	addi	a0,zero,255
4000232c:	02812403          	lw	s0,40(sp)
40002330:	02c12083          	lw	ra,44(sp)
40002334:	02412483          	lw	s1,36(sp)
40002338:	02012903          	lw	s2,32(sp)
4000233c:	01c12983          	lw	s3,28(sp)
40002340:	01812a03          	lw	s4,24(sp)
40002344:	01412a83          	lw	s5,20(sp)
40002348:	01012b03          	lw	s6,16(sp)
4000234c:	03010113          	addi	sp,sp,48
40002350:	f88ff06f          	jal	zero,40001ad8 <panic>
40002354:	00200513          	addi	a0,zero,2
40002358:	f80ff0ef          	jal	ra,40001ad8 <panic>
4000235c:	4007e7b7          	lui	a5,0x4007e
40002360:	3947d783          	lhu	a5,916(a5) # 4007e394 <krnl_tasks>
40002364:	00300513          	addi	a0,zero,3
40002368:	fc0782e3          	beq	a5,zero,4000232c <dispatch_isr+0x1f8>
4000236c:	eb9ff06f          	jal	zero,40002224 <dispatch_isr+0xf0>
40002370:	3c092503          	lw	a0,960(s2)
40002374:	991ff0ef          	jal	ra,40001d04 <hf_queue_addtail>
40002378:	ec050ce3          	beq	a0,zero,40002250 <dispatch_isr+0x11c>
4000237c:	00a00513          	addi	a0,zero,10
40002380:	f58ff0ef          	jal	ra,40001ad8 <panic>
40002384:	ecdff06f          	jal	zero,40002250 <dispatch_isr+0x11c>
40002388:	00a12623          	sw	a0,12(sp)
4000238c:	00700513          	addi	a0,zero,7
40002390:	f48ff0ef          	jal	ra,40001ad8 <panic>
40002394:	00c12583          	lw	a1,12(sp)
40002398:	ed1ff06f          	jal	zero,40002268 <dispatch_isr+0x134>
4000239c:	00b00513          	addi	a0,zero,11
400023a0:	f38ff0ef          	jal	ra,40001ad8 <panic>
400023a4:	eadff06f          	jal	zero,40002250 <dispatch_isr+0x11c>

400023a8 <sched_priorityrr>:
400023a8:	4007e7b7          	lui	a5,0x4007e
400023ac:	3b47a503          	lw	a0,948(a5) # 4007e3b4 <krnl_run_queue>
400023b0:	fe010113          	addi	sp,sp,-32
400023b4:	00112e23          	sw	ra,28(sp)
400023b8:	00812c23          	sw	s0,24(sp)
400023bc:	00912a23          	sw	s1,20(sp)
400023c0:	01212823          	sw	s2,16(sp)
400023c4:	01312623          	sw	s3,12(sp)
400023c8:	01412423          	sw	s4,8(sp)
400023cc:	01512223          	sw	s5,4(sp)
400023d0:	92dff0ef          	jal	ra,40001cfc <hf_queue_count>
400023d4:	0e050463          	beq	a0,zero,400024bc <sched_priorityrr+0x114>
400023d8:	00050993          	addi	s3,a0,0
400023dc:	b6dff0ef          	jal	ra,40001f48 <run_queue_next>
400023e0:	0f305463          	bge	zero,s3,400024c8 <sched_priorityrr+0x120>
400023e4:	00000493          	addi	s1,zero,0
400023e8:	0ff00a93          	addi	s5,zero,255
400023ec:	00000413          	addi	s0,zero,0
400023f0:	4007e937          	lui	s2,0x4007e
400023f4:	00300a13          	addi	s4,zero,3
400023f8:	0180006f          	jal	zero,40002410 <sched_priorityrr+0x68>
400023fc:	0167c703          	lbu	a4,22(a5)
40002400:	0b471863          	bne	a4,s4,400024b0 <sched_priorityrr+0x108>
40002404:	00140793          	addi	a5,s0,1
40002408:	02f98c63          	beq	s3,a5,40002440 <sched_priorityrr+0x98>
4000240c:	00078413          	addi	s0,a5,0
40002410:	b39ff0ef          	jal	ra,40001f48 <run_queue_next>
40002414:	38892783          	lw	a5,904(s2) # 4007e388 <krnl_task>
40002418:	0197c703          	lbu	a4,25(a5)
4000241c:	fe0710e3          	bne	a4,zero,400023fc <sched_priorityrr+0x54>
40002420:	0187c703          	lbu	a4,24(a5)
40002424:	ff5770e3          	bgeu	a4,s5,40002404 <sched_priorityrr+0x5c>
40002428:	0167c683          	lbu	a3,22(a5)
4000242c:	fd468ce3          	beq	a3,s4,40002404 <sched_priorityrr+0x5c>
40002430:	00078493          	addi	s1,a5,0
40002434:	00140793          	addi	a5,s0,1
40002438:	00070a93          	addi	s5,a4,0
4000243c:	fcf998e3          	bne	s3,a5,4000240c <sched_priorityrr+0x64>
40002440:	00000993          	addi	s3,zero,0
40002444:	0080006f          	jal	zero,4000244c <sched_priorityrr+0xa4>
40002448:	00078993          	addi	s3,a5,0
4000244c:	afdff0ef          	jal	ra,40001f48 <run_queue_next>
40002450:	38892783          	lw	a5,904(s2)
40002454:	00978a63          	beq	a5,s1,40002468 <sched_priorityrr+0xc0>
40002458:	0187c703          	lbu	a4,24(a5)
4000245c:	0184c683          	lbu	a3,24(s1)
40002460:	40d70733          	sub	a4,a4,a3
40002464:	00e78c23          	sb	a4,24(a5)
40002468:	00198793          	addi	a5,s3,1
4000246c:	fd341ee3          	bne	s0,s3,40002448 <sched_priorityrr+0xa0>
40002470:	0174c783          	lbu	a5,23(s1)
40002474:	38992423          	sw	s1,904(s2)
40002478:	00f48c23          	sb	a5,24(s1)
4000247c:	0244a783          	lw	a5,36(s1)
40002480:	01c12083          	lw	ra,28(sp)
40002484:	01812403          	lw	s0,24(sp)
40002488:	00178793          	addi	a5,a5,1
4000248c:	02f4a223          	sw	a5,36(s1)
40002490:	0004d503          	lhu	a0,0(s1)
40002494:	01012903          	lw	s2,16(sp)
40002498:	01412483          	lw	s1,20(sp)
4000249c:	00c12983          	lw	s3,12(sp)
400024a0:	00812a03          	lw	s4,8(sp)
400024a4:	00412a83          	lw	s5,4(sp)
400024a8:	02010113          	addi	sp,sp,32
400024ac:	00008067          	jalr	zero,0(ra)
400024b0:	00078ca3          	sb	zero,25(a5)
400024b4:	00078493          	addi	s1,a5,0
400024b8:	fc5ff06f          	jal	zero,4000247c <sched_priorityrr+0xd4>
400024bc:	00500513          	addi	a0,zero,5
400024c0:	e18ff0ef          	jal	ra,40001ad8 <panic>
400024c4:	a85ff0ef          	jal	ra,40001f48 <run_queue_next>
400024c8:	4007e7b7          	lui	a5,0x4007e
400024cc:	3807a423          	sw	zero,904(a5) # 4007e388 <krnl_task>
400024d0:	01704783          	lbu	a5,23(zero) # 17 <_entry-0x3fffffe9>
400024d4:	00100073          	ebreak

400024d8 <sched_edf>:
400024d8:	fe010113          	addi	sp,sp,-32
400024dc:	01212823          	sw	s2,16(sp)
400024e0:	4007e937          	lui	s2,0x4007e
400024e4:	3b892503          	lw	a0,952(s2) # 4007e3b8 <krnl_rt_queue>
400024e8:	01412423          	sw	s4,8(sp)
400024ec:	00112e23          	sw	ra,28(sp)
400024f0:	00812c23          	sw	s0,24(sp)
400024f4:	00912a23          	sw	s1,20(sp)
400024f8:	01312623          	sw	s3,12(sp)
400024fc:	01512223          	sw	s5,4(sp)
40002500:	01612023          	sw	s6,0(sp)
40002504:	ff8ff0ef          	jal	ra,40001cfc <hf_queue_count>
40002508:	00050a13          	addi	s4,a0,0
4000250c:	08050663          	beq	a0,zero,40002598 <sched_edf+0xc0>
40002510:	00100793          	addi	a5,zero,1
40002514:	06a7dc63          	bge	a5,a0,4000258c <sched_edf+0xb4>
40002518:	fff50b13          	addi	s6,a0,-1
4000251c:	00000a93          	addi	s5,zero,0
40002520:	000a8993          	addi	s3,s5,0
40002524:	001a8a93          	addi	s5,s5,1
40002528:	074ad063          	bge	s5,s4,40002588 <sched_edf+0xb0>
4000252c:	000a8413          	addi	s0,s5,0
40002530:	00c0006f          	jal	zero,4000253c <sched_edf+0x64>
40002534:	00140413          	addi	s0,s0,1
40002538:	048a0863          	beq	s4,s0,40002588 <sched_edf+0xb0>
4000253c:	3b892503          	lw	a0,952(s2)
40002540:	00098593          	addi	a1,s3,0
40002544:	8cdff0ef          	jal	ra,40001e10 <hf_queue_get>
40002548:	00050493          	addi	s1,a0,0
4000254c:	3b892503          	lw	a0,952(s2)
40002550:	00040593          	addi	a1,s0,0
40002554:	8bdff0ef          	jal	ra,40001e10 <hf_queue_get>
40002558:	0364d703          	lhu	a4,54(s1)
4000255c:	03655783          	lhu	a5,54(a0)
40002560:	fce7fae3          	bgeu	a5,a4,40002534 <sched_edf+0x5c>
40002564:	3b892503          	lw	a0,952(s2)
40002568:	00040613          	addi	a2,s0,0
4000256c:	00098593          	addi	a1,s3,0
40002570:	919ff0ef          	jal	ra,40001e88 <hf_queue_swap>
40002574:	fc0500e3          	beq	a0,zero,40002534 <sched_edf+0x5c>
40002578:	00c00513          	addi	a0,zero,12
4000257c:	00140413          	addi	s0,s0,1
40002580:	d58ff0ef          	jal	ra,40001ad8 <panic>
40002584:	fa8a1ce3          	bne	s4,s0,4000253c <sched_edf+0x64>
40002588:	f95b1ce3          	bne	s6,s5,40002520 <sched_edf+0x48>
4000258c:	000a0513          	addi	a0,s4,0
40002590:	a2dff0ef          	jal	ra,40001fbc <rt_schedule>
40002594:	00050a13          	addi	s4,a0,0
40002598:	01c12083          	lw	ra,28(sp)
4000259c:	01812403          	lw	s0,24(sp)
400025a0:	01412483          	lw	s1,20(sp)
400025a4:	01012903          	lw	s2,16(sp)
400025a8:	00c12983          	lw	s3,12(sp)
400025ac:	00412a83          	lw	s5,4(sp)
400025b0:	00012b03          	lw	s6,0(sp)
400025b4:	000a0513          	addi	a0,s4,0
400025b8:	00812a03          	lw	s4,8(sp)
400025bc:	02010113          	addi	sp,sp,32
400025c0:	00008067          	jalr	zero,0(ra)

400025c4 <hf_spawn>:
400025c4:	fb010113          	addi	sp,sp,-80
400025c8:	04812423          	sw	s0,72(sp)
400025cc:	04912223          	sw	s1,68(sp)
400025d0:	05212023          	sw	s2,64(sp)
400025d4:	03312e23          	sw	s3,60(sp)
400025d8:	03412c23          	sw	s4,56(sp)
400025dc:	03512a23          	sw	s5,52(sp)
400025e0:	04112623          	sw	ra,76(sp)
400025e4:	03612823          	sw	s6,48(sp)
400025e8:	03712623          	sw	s7,44(sp)
400025ec:	03812423          	sw	s8,40(sp)
400025f0:	03912223          	sw	s9,36(sp)
400025f4:	00058913          	addi	s2,a1,0
400025f8:	00060493          	addi	s1,a2,0
400025fc:	00050a13          	addi	s4,a0,0
40002600:	00068993          	addi	s3,a3,0
40002604:	00070a93          	addi	s5,a4,0
40002608:	00078413          	addi	s0,a5,0
4000260c:	00012e23          	sw	zero,28(sp)
40002610:	ff1fd0ef          	jal	ra,40000600 <_read_us>
40002614:	00050593          	addi	a1,a0,0
40002618:	40003537          	lui	a0,0x40003
4000261c:	f4050513          	addi	a0,a0,-192 # 40002f40 <_etext+0x668>
40002620:	e84fe0ef          	jal	ra,40000ca4 <dprintf>
40002624:	28996663          	bltu	s2,s1,400028b0 <hf_spawn+0x2ec>
40002628:	2899e463          	bltu	s3,s1,400028b0 <hf_spawn+0x2ec>
4000262c:	00000513          	addi	a0,zero,0
40002630:	bc5fd0ef          	jal	ra,400001f4 <_interrupt_set>
40002634:	00a12c23          	sw	a0,24(sp)
40002638:	01c12703          	lw	a4,28(sp)
4000263c:	40003b37          	lui	s6,0x40003
40002640:	090b0b13          	addi	s6,s6,144 # 40003090 <krnl_tcb>
40002644:	00271793          	slli	a5,a4,0x2
40002648:	00e787b3          	add	a5,a5,a4
4000264c:	00279793          	slli	a5,a5,0x2
40002650:	40e787b3          	sub	a5,a5,a4
40002654:	00379793          	slli	a5,a5,0x3
40002658:	00fb07b3          	add	a5,s6,a5
4000265c:	0887a783          	lw	a5,136(a5)
40002660:	01d00713          	addi	a4,zero,29
40002664:	02079c63          	bne	a5,zero,4000269c <hf_spawn+0xd8>
40002668:	03c0006f          	jal	zero,400026a4 <hf_spawn+0xe0>
4000266c:	01c12783          	lw	a5,28(sp)
40002670:	00178793          	addi	a5,a5,1
40002674:	00f12e23          	sw	a5,28(sp)
40002678:	01c12783          	lw	a5,28(sp)
4000267c:	00279813          	slli	a6,a5,0x2
40002680:	00f80833          	add	a6,a6,a5
40002684:	00281813          	slli	a6,a6,0x2
40002688:	40f80833          	sub	a6,a6,a5
4000268c:	00381813          	slli	a6,a6,0x3
40002690:	010b0833          	add	a6,s6,a6
40002694:	08882783          	lw	a5,136(a6)
40002698:	00078663          	beq	a5,zero,400026a4 <hf_spawn+0xe0>
4000269c:	01c12783          	lw	a5,28(sp)
400026a0:	fcf776e3          	bgeu	a4,a5,4000266c <hf_spawn+0xa8>
400026a4:	01c12703          	lw	a4,28(sp)
400026a8:	01e00793          	addi	a5,zero,30
400026ac:	20f70663          	beq	a4,a5,400028b8 <hf_spawn+0x2f4>
400026b0:	01c12683          	lw	a3,28(sp)
400026b4:	4007ec37          	lui	s8,0x4007e
400026b8:	394c5703          	lhu	a4,916(s8) # 4007e394 <krnl_tasks>
400026bc:	00269793          	slli	a5,a3,0x2
400026c0:	00d787b3          	add	a5,a5,a3
400026c4:	00279793          	slli	a5,a5,0x2
400026c8:	40d787b3          	sub	a5,a5,a3
400026cc:	01c12683          	lw	a3,28(sp)
400026d0:	00379793          	slli	a5,a5,0x3
400026d4:	00278513          	addi	a0,a5,2
400026d8:	00fb07b3          	add	a5,s6,a5
400026dc:	4007ebb7          	lui	s7,0x4007e
400026e0:	00170713          	addi	a4,a4,1
400026e4:	00d79023          	sh	a3,0(a5)
400026e8:	01400613          	addi	a2,zero,20
400026ec:	000a8593          	addi	a1,s5,0
400026f0:	00ab0533          	add	a0,s6,a0
400026f4:	38ec1a23          	sh	a4,916(s8)
400026f8:	38fba423          	sw	a5,904(s7) # 4007e388 <krnl_task>
400026fc:	ce5fe0ef          	jal	ra,400013e0 <strncpy>
40002700:	388baa83          	lw	s5,904(s7)
40002704:	000067b7          	lui	a5,0x6
40002708:	40078793          	addi	a5,a5,1024 # 6400 <_entry-0x3fff9c00>
4000270c:	00340413          	addi	s0,s0,3
40002710:	ffc47413          	andi	s0,s0,-4
40002714:	00fa9b23          	sh	a5,22(s5)
40002718:	06400793          	addi	a5,zero,100
4000271c:	00fa8c23          	sb	a5,24(s5)
40002720:	029a9723          	sh	s1,46(s5)
40002724:	029a9a23          	sh	s1,52(s5)
40002728:	000aae23          	sw	zero,28(s5)
4000272c:	032a9623          	sh	s2,44(s5)
40002730:	033a9823          	sh	s3,48(s5)
40002734:	032a9923          	sh	s2,50(s5)
40002738:	033a9b23          	sh	s3,54(s5)
4000273c:	020aa023          	sw	zero,32(s5)
40002740:	020aa223          	sw	zero,36(s5)
40002744:	020aa423          	sw	zero,40(s5)
40002748:	094aa423          	sw	s4,136(s5)
4000274c:	088aa823          	sw	s0,144(s5)
40002750:	00040513          	addi	a0,s0,0
40002754:	9c4ff0ef          	jal	ra,40001918 <hf_malloc>
40002758:	388ba783          	lw	a5,904(s7)
4000275c:	08aaa623          	sw	a0,140(s5)
40002760:	08c7a583          	lw	a1,140(a5)
40002764:	0007d503          	lhu	a0,0(a5)
40002768:	ffc58593          	addi	a1,a1,-4
4000276c:	008585b3          	add	a1,a1,s0
40002770:	e19fd0ef          	jal	ra,40000588 <_set_task_sp>
40002774:	388ba783          	lw	a5,904(s7)
40002778:	0007d503          	lhu	a0,0(a5)
4000277c:	0887a583          	lw	a1,136(a5)
40002780:	e59fd0ef          	jal	ra,400005d8 <_set_task_tp>
40002784:	388ba483          	lw	s1,904(s7)
40002788:	08c4a503          	lw	a0,140(s1)
4000278c:	0e050863          	beq	a0,zero,4000287c <hf_spawn+0x2b8>
40002790:	0004d983          	lhu	s3,0(s1)
40002794:	b00bb5b7          	lui	a1,0xb00bb
40002798:	00b58593          	addi	a1,a1,11 # b00bb00b <_stack+0x600bb00f>
4000279c:	02c4da03          	lhu	s4,44(s1)
400027a0:	02e4da83          	lhu	s5,46(s1)
400027a4:	0304dc03          	lhu	s8,48(s1)
400027a8:	0884ac83          	lw	s9,136(s1)
400027ac:	00b52023          	sw	a1,0(a0)
400027b0:	00098513          	addi	a0,s3,0
400027b4:	dfdfd0ef          	jal	ra,400005b0 <_get_task_sp>
400027b8:	00050893          	addi	a7,a0,0
400027bc:	40003537          	lui	a0,0x40003
400027c0:	00248593          	addi	a1,s1,2
400027c4:	00812023          	sw	s0,0(sp)
400027c8:	000c8813          	addi	a6,s9,0
400027cc:	000c0793          	addi	a5,s8,0
400027d0:	000a8713          	addi	a4,s5,0
400027d4:	000a0693          	addi	a3,s4,0
400027d8:	00098613          	addi	a2,s3,0
400027dc:	f7850513          	addi	a0,a0,-136 # 40002f78 <_etext+0x6a0>
400027e0:	ae8fe0ef          	jal	ra,40000ac8 <kprintf>
400027e4:	388ba583          	lw	a1,904(s7)
400027e8:	06091c63          	bne	s2,zero,40002860 <hf_spawn+0x29c>
400027ec:	4007e7b7          	lui	a5,0x4007e
400027f0:	3b47a503          	lw	a0,948(a5) # 4007e3b4 <krnl_run_queue>
400027f4:	d10ff0ef          	jal	ra,40001d04 <hf_queue_addtail>
400027f8:	0a051663          	bne	a0,zero,400028a4 <hf_spawn+0x2e0>
400027fc:	4007e7b7          	lui	a5,0x4007e
40002800:	3847d703          	lhu	a4,900(a5) # 4007e384 <krnl_current_task>
40002804:	01812503          	lw	a0,24(sp)
40002808:	00271793          	slli	a5,a4,0x2
4000280c:	00e787b3          	add	a5,a5,a4
40002810:	00279793          	slli	a5,a5,0x2
40002814:	40e787b3          	sub	a5,a5,a4
40002818:	00379793          	slli	a5,a5,0x3
4000281c:	00fb0b33          	add	s6,s6,a5
40002820:	396ba423          	sw	s6,904(s7)
40002824:	9d1fd0ef          	jal	ra,400001f4 <_interrupt_set>
40002828:	01c12503          	lw	a0,28(sp)
4000282c:	04c12083          	lw	ra,76(sp)
40002830:	04812403          	lw	s0,72(sp)
40002834:	04412483          	lw	s1,68(sp)
40002838:	04012903          	lw	s2,64(sp)
4000283c:	03c12983          	lw	s3,60(sp)
40002840:	03812a03          	lw	s4,56(sp)
40002844:	03412a83          	lw	s5,52(sp)
40002848:	03012b03          	lw	s6,48(sp)
4000284c:	02c12b83          	lw	s7,44(sp)
40002850:	02812c03          	lw	s8,40(sp)
40002854:	02412c83          	lw	s9,36(sp)
40002858:	05010113          	addi	sp,sp,80
4000285c:	00008067          	jalr	zero,0(ra)
40002860:	4007e7b7          	lui	a5,0x4007e
40002864:	3b87a503          	lw	a0,952(a5) # 4007e3b8 <krnl_rt_queue>
40002868:	c9cff0ef          	jal	ra,40001d04 <hf_queue_addtail>
4000286c:	f80508e3          	beq	a0,zero,400027fc <hf_spawn+0x238>
40002870:	00b00513          	addi	a0,zero,11
40002874:	a64ff0ef          	jal	ra,40001ad8 <panic>
40002878:	f85ff06f          	jal	zero,400027fc <hf_spawn+0x238>
4000287c:	394c5783          	lhu	a5,916(s8)
40002880:	40003537          	lui	a0,0x40003
40002884:	0804a423          	sw	zero,136(s1)
40002888:	fff78793          	addi	a5,a5,-1
4000288c:	fc050513          	addi	a0,a0,-64 # 40002fc0 <_etext+0x6e8>
40002890:	38fc1a23          	sh	a5,916(s8)
40002894:	a34fe0ef          	jal	ra,40000ac8 <kprintf>
40002898:	f9800793          	addi	a5,zero,-104
4000289c:	00f12e23          	sw	a5,28(sp)
400028a0:	f5dff06f          	jal	zero,400027fc <hf_spawn+0x238>
400028a4:	00900513          	addi	a0,zero,9
400028a8:	a30ff0ef          	jal	ra,40001ad8 <panic>
400028ac:	f51ff06f          	jal	zero,400027fc <hf_spawn+0x238>
400028b0:	f9b00513          	addi	a0,zero,-101
400028b4:	f79ff06f          	jal	zero,4000282c <hf_spawn+0x268>
400028b8:	40003537          	lui	a0,0x40003
400028bc:	01e00593          	addi	a1,zero,30
400028c0:	f5050513          	addi	a0,a0,-176 # 40002f50 <_etext+0x678>
400028c4:	a04fe0ef          	jal	ra,40000ac8 <kprintf>
400028c8:	01812503          	lw	a0,24(sp)
400028cc:	929fd0ef          	jal	ra,400001f4 <_interrupt_set>
400028d0:	f9900513          	addi	a0,zero,-103
400028d4:	f59ff06f          	jal	zero,4000282c <hf_spawn+0x268>
